###############################################################################
#                                                                             #
# IAR ELF Linker V6.40.4.54170/W32 for ARM              29/Nov/2013  10:51:19 #
# Copyright 2007-2012 IAR Systems AB.                                         #
#                                                                             #
#    Output file  =  D:\Ganglu\Documents\GitHub\K60F120M\ffs\examples\mfs_nan #
#                    dflash\iar\mfs_nandflash_K60F120M\K60F120M\Int Flash     #
#                    Debug\Exe\K60F120M.out                                   #
#    Map file     =  D:\Ganglu\Documents\GitHub\K60F120M\ffs\examples\mfs_nan #
#                    dflash\iar\mfs_nandflash_K60F120M\K60F120M\Int Flash     #
#                    Debug\List\K60F120M.map                                  #
#    Command line =  "D:\Ganglu\Documents\GitHub\K60F120M\ffs\examples\mfs_na #
#                    ndflash\iar\mfs_nandflash_K60F120M\K60F120M\Int Flash    #
#                    Debug\Obj\demo.o" D:\Ganglu\Documents\GitHub\K60F120M\li #
#                    b\K60F120M.iar\debug\bsp\bsp.a                           #
#                    D:\Ganglu\Documents\GitHub\K60F120M\lib\K60F120M.iar\deb #
#                    ug\ffs\ffs.a D:\Ganglu\Documents\GitHub\K60F120M\lib\K60 #
#                    F120M.iar\debug\mfs\mfs.a D:\Ganglu\Documents\GitHub\K60 #
#                    F120M\lib\K60F120M.iar\debug\psp\psp.a                   #
#                    D:\Ganglu\Documents\GitHub\K60F120M\lib\K60F120M.iar\deb #
#                    ug\shell\shell.a --redirect _Printf=_PrintfFull          #
#                    --redirect _Scanf=_ScanfFull -o                          #
#                    "D:\Ganglu\Documents\GitHub\K60F120M\ffs\examples\mfs_na #
#                    ndflash\iar\mfs_nandflash_K60F120M\K60F120M\Int Flash    #
#                    Debug\Exe\K60F120M.out" --map                            #
#                    "D:\Ganglu\Documents\GitHub\K60F120M\ffs\examples\mfs_na #
#                    ndflash\iar\mfs_nandflash_K60F120M\K60F120M\Int Flash    #
#                    Debug\List\K60F120M.map" --config                        #
#                    D:\Ganglu\Documents\GitHub\K60F120M\ffs\examples\mfs_nan #
#                    dflash\iar\mfs_nandflash_K60F120M/../../../../../lib/K60 #
#                    F120M.iar/debug/bsp/intflash.icf --redirect              #
#                    __iar_dlmalloc=malloc --redirect __iar_dlcalloc=calloc   #
#                    --redirect __iar_dlfree=free --semihosting --entry       #
#                    __iar_program_start --vfe                                #
#                                                                             #
#                                                                             #
###############################################################################

*******************************************************************************
*** RUNTIME MODEL ATTRIBUTES
***

CppFlavor                   = *
__CPP_Exceptions            = Used
__CPP_Language              = C++
__SystemLibrary             = DLib
__dlib_iterator_debugging   = 0
__dlib_jmp_buf_num_elements = 16


*******************************************************************************
*** PLACEMENT SUMMARY
***

"A1":  place at 0x00000000 { ro section .intvec, block CFMPROTROM };
"P1":  place in [from 0x00000000 to 0x0007ffff] {
          first block TEXTSECTION, ro, last block FLASHX_POOL };
"P2":  place in [from 0x1fff0000 to 0x2000fff0] {
          block USER_MEMORY, last block KERNEL_DATA };

  Section                 Kind        Address     Size  Object
  -------                 ----        -------     ----  ------
"A1":                                            0x414
  .intvec                 const    0x00000000    0x400  vectors.o [3]
  CFMPROTROM                       0x00000400     0x14  <Block>
    .cfmconfig            const    0x00000400     0x10  vectors.o [3]
    .cfmconfig            const    0x00000410      0x0  vectors.o [3]
    CFMPROTROM            const    0x00000410      0x4  <Block tail>
                                 - 0x00000414    0x414

"P1":                                          0x2abe4
  TEXTSECTION                      0x00000420  0x24cf2  <Block>
    .text                 ro code  0x00000420     0x28  support.o [9]
    .text                 ro code  0x00000450     0x64  boot.o [9]
    .text                 ro code  0x000004b4      0xc  cstartup_M.o [10]
    .text                 ro code  0x000004c0     0x1a  fpinit_M.o [7]
    .text                 ro code  0x000004da      0x6  ddi_nand_media_init.o [6]
    .text                 ro code  0x000004e0     0x16  cmain.o [10]
    .text                 ro code  0x000004f6     0x22  comp.o [9]
    .text                 ro code  0x00000518     0x28  data_init3.o [10]
    .text                 ro code  0x00000540     0x10  mqx_main.o [3]
    .text                 ro code  0x00000550      0x4  exit.o [4]
    .text                 ro code  0x00000554    0x164  init_hw.o [3]
    .text                 ro code  0x000006b8    0x684  lwmem.o [9]
    .text                 ro code  0x00000d3c    0x310  mqx.o [9]
    .text                 ro code  0x0000104c      0xa  cexit.o [10]
    .text                 ro code  0x00001056      0x6  ddi_nand_media_discover.o [6]
    .text                 ro code  0x0000105c    0xa0c  bsp_cm.o [3]
    .text                 ro code  0x00001a68    0x678  init_gpio.o [3]
    .text                 ro code  0x000020e0    0x862  task.o [9]
    .text                 ro code  0x00002942      0x2  ddi_nand_media_discover.o [6]
    .text                 ro code  0x00002944    0x240  int.o [9]
    .text                 ro code  0x00002b84     0x16  ddi_nand_data_drive_read_sector.o [6]
    .text                 ro code  0x00002b9a    0x1aa  queue.o [9]
    .text                 ro code  0x00002d44     0x76  ABImemcpy.o [10]
    .text                 ro code  0x00002dba      0x6  ddi_nand_media_discover.o [6]
    .text                 ro code  0x00002dc0     0xd8  sc_irdyq.o [9]
    .text                 ro code  0x00002e98    0x2f4  lwsem.o [9]
    .text                 ro code  0x0000318c    0x208  init_bsp.o [3]
    .text                 ro code  0x00003394     0x14  exit.o [11]
    .text                 ro code  0x000033a8    0x19a  hwtimer.o [3]
    .text                 ro code  0x00003542      0x2  stack_de.o [9]
    .text                 ro code  0x00003544     0xc6  stack_bu.o [9]
    .text                 ro code  0x0000360a      0x6  ddi_nand_media_discover.o [6]
    .text                 ro code  0x00003610     0x66  ABImemset.o [10]
    .text                 ro code  0x00003676      0xa  red_black_tree.o [6]
    .text                 ro code  0x00003680    0x6a4  time.o [9]
    .text                 ro code  0x00003d24     0x1c  psp_iinit.o [9]
    .text                 ro code  0x00003d40     0x14  int_vtab.o [9]
    .text                 ro code  0x00003d54     0x14  kinetis_mpu.o [9]
    .text                 ro code  0x00003d68    0x208  edma.o [3]
    .text                 ro code  0x00003f70     0x24  io_init.o [9]
    .text                 ro code  0x00003f94    0x3a0  krtc.o [3]
    .text                 ro code  0x00004334     0x2c  cache.o [9]
    .text                 ro code  0x00004360    0x248  serl_int_kuart.o [3]
    .text                 ro code  0x000045a8    0x958  i2c_pol_ki2c.o [3]
    .text                 ro code  0x00004f00    0x714  i2c_int_ki2c.o [3]
    .text                 ro code  0x00005614    0x604  adc.o [3]
    .text                 ro code  0x00005c18    0xd90  esdhc.o [3]
    .text                 ro code  0x000069a8    0x27a  sai_int.o [3]
    .text                 ro code  0x00006c22      0x6  ddi_nand_hal_nfcphymedia.o [6]
    .text                 ro code  0x00006c28     0x38  io_sinit.o [3]
    .text                 ro code  0x00006c60     0x84  psp_msti.o [9]
    .text                 ro code  0x00006ce4     0x54  psp_tiad.o [9]
    .text                 ro code  0x00006d38    0x174  sched.o [9]
    .text                 ro code  0x00006eac     0x88  psp_mstiq.o [9]
    .text                 ro code  0x00006f34     0x48  psp_tisu.o [9]
    .text                 ro code  0x00006f7c     0x5c  psp_tise.o [9]
    .text                 ro code  0x00006fd8     0x38  psp_tinm.o [9]
    .text                 ro code  0x00007010     0xa4  psp_tkti.o [9]
    .text                 ro code  0x000070b4     0x26  psp_tiol.o [9]
    .text                 ro code  0x000070da     0x22  zero_init3.o [10]
    .text                 ro code  0x000070fc     0x14  int_inst.o [9]
    .text                 ro code  0x00007110     0x68  edma_kinetisf.o [3]
    .text                 ro code  0x00007178     0xc4  nvic.o [9]
    .text                 ro code  0x0000723c    0x7be  serl_int.o [3]
    .text                 ro code  0x000079fc    0x540  serl_pol_kuart.o [3]
    .text                 ro code  0x00007f3c    0x1da  i2c_pol.o [3]
    .text                 ro code  0x00008118     0x48  i2c_mk60.o [3]
    .text                 ro code  0x00008160    0x1e2  i2c_int.o [3]
    .text                 ro code  0x00008344    0xb94  adc_kadc.o [3]
    .text                 ro code  0x00008ed8    0xbb4  adt_kpdb.o [3]
    .text                 ro code  0x00009a8c     0x3a  io_inst.o [9]
    .text                 ro code  0x00009ac8     0x42  strcmp.o [10]
    .text                 ro code  0x00009b0c     0x36  strlen.o [10]
    .text                 ro code  0x00009b44    0x100  io_instx.o [9]
    .text                 ro code  0x00009c44     0x18  esdhc_mk60.o [3]
    .text                 ro code  0x00009c5c     0xc8  io_fopen.o [9]
    .text                 ro code  0x00009d24    0x132  I64DivMod.o [10]
    .text                 ro code  0x00009e58     0x20  psp_seti.o [9]
    .text                 ro code  0x00009e78    0x20c  taskq.o [9]
    .text                 ro code  0x0000a084     0x5c  serl_mk60.o [3]
    .text                 ro code  0x0000a0e0     0x18  adc_mk60.o [3]
    .text                 ro code  0x0000a0f8    0x104  lwevent.o [9]
    .text                 ro code  0x0000a1fc     0x2a  strncmp.o [4]
    .text                 ro code  0x0000a228      0x2  I64DivZer.o [10]
    .text                 ro code  0x0000a22c    0x56c  demo.o [1]
    .text                 ro code  0x0000a798     0x2c  io_pntf.o [9]
    .text                 ro code  0x0000a7c4     0x5a  io_ioctl.o [9]
    .text                 ro code  0x0000a81e     0x36  io_fclos.o [9]
    .text                 ro code  0x0000a854   0x1350  mfs_init.o [8]
    .text                 ro code  0x0000bba4    0x468  mfs_misc.o [8]
    .text                 ro code  0x0000c00c     0x10  io_ferr.o [9]
    .text                 ro code  0x0000c01c     0x8c  io_uinst.o [9]
    .text                 ro code  0x0000c0a8    0xad0  nandflash_wl.o [6]
    .text                 ro code  0x0000cb78    0x23c  shell.o [12]
    .text                 ro code  0x0000cdb4    0x26e  sh_util.o [12]
    .text                 ro code  0x0000d024     0x50  io_ghand.o [9]
    .text                 ro code  0x0000d074    0xf60  io_dopr.o [9]
    .text                 ro code  0x0000dfd4    0x510  partition.o [9]
    .text                 ro code  0x0000e4e4    0x3c8  io_util.o [9]
    .text                 ro code  0x0000e8ac    0x3e0  mfs_open.o [8]
    .text                 ro code  0x0000ec8c    0x4e4  mfs_create.o [8]
    .text                 ro code  0x0000f170     0xc0  io_fseek.o [9]
    .text                 ro code  0x0000f230    0x350  mfs_read.o [8]
    .text                 ro code  0x0000f580    0x588  mfs_write.o [8]
    .text                 ro code  0x0000fb08    0x448  mfs_cluster.o [8]
    .text                 ro code  0x0000ff50    0x8a6  mfs_directory.o [8]
    .text                 ro code  0x000107f6    0x110  mfs_attribute.o [8]
    .text                 ro code  0x00010906     0xf2  mfs_time.o [8]
    .text                 ro code  0x000109f8    0x8c2  mfs_lfn.o [8]
    .text                 ro code  0x000112ba    0x102  mfs_delete.o [8]
    .text                 ro code  0x000113bc    0x2c4  mfs_rename.o [8]
    .text                 ro code  0x00011680    0x812  mfs_dir_entry.o [8]
    .text                 ro code  0x00011e92    0x414  mfs_rw.o [8]
    .text                 ro code  0x000122a8    0x412  mfs_fat.o [8]
    .text                 ro code  0x000126bc    0x7e6  mfs_format.o [8]
    .text                 ro code  0x00012ea2     0xae  mfs_data_sector.o [8]
    .text                 ro code  0x00012f50     0xac  mfs_valdev.o [8]
    .text                 ro code  0x00012ffc    0x262  ddi_ldl_init.o [6]
    .text                 ro code  0x00013260    0x134  media_buffer_manager_init.o [6]
    .text                 ro code  0x00013394    0x272  ddi_ldl_write.o [6]
    .text                 ro code  0x00013606     0x3a  ddi_ldl_read.o [6]
    .text                 ro code  0x00013640    0x1f4  ddi_ldl_util.o [6]
    .text                 ro code  0x00013834    0x104  ddi_ldl_drive_get_info.o [6]
    .text                 ro code  0x00013938     0x6c  strncpy.o [10]
    .text                 ro code  0x000139a4     0x3a  io_fflsh.o [9]
    .text                 ro code  0x000139de     0x34  io_fgets.o [9]
    .text                 ro code  0x00013a12     0x1c  io_util.o [9]
    .text                 ro code  0x00013a2e     0x12  sh_util.o [12]
    .text                 ro code  0x00013a40     0x44  strcpy.o [10]
    .text                 ro code  0x00013a84    0x94a  io_fp.o [9]
    .text                 ro code  0x000143ce      0xc  io_util.o [9]
    .text                 ro code  0x000143da      0xc  io_util.o [9]
    .text                 ro code  0x000143e6    0x7f2  mfs_search.o [8]
    .text                 ro code  0x00014bd8     0x92  mfs_handle.o [8]
    .text                 ro code  0x00014c6c     0x66  io_spr.o [9]
    .text                 ro code  0x00014cd2     0x16  zone_map_section_page.o [6]
    .text                 ro code  0x00014ce8     0x22  I64Shl.o [10]
    .text                 ro code  0x00014d0c    0x576  mfs_parse.o [8]
    .text                 ro code  0x00015282     0x1c  strnlen.o [9]
    .text                 ro code  0x0001529e     0x32  io_write.o [9]
    .text                 ro code  0x000152d0     0x86  io_read.o [9]
    .text                 ro code  0x00015358     0x62  memcmp.o [10]
    .text                 ro code  0x000153bc     0x24  newop_0.o [5]
    .text                 ro code  0x000153e0    0x260  ddi_nand_media_init.o [6]
    .text                 ro code  0x00015640      0x4  ddi_ldl_util.o [6]
    .text                 ro code  0x00015644      0x4  ddi_ldl_init.o [6]
    .text                 ro code  0x00015648      0x4  ddi_ldl_init.o [6]
    .text                 ro code  0x0001564c      0x4  ddi_ldl_init.o [6]
    .text                 ro code  0x00015650      0x4  ddi_ldl_init.o [6]
    .text                 ro code  0x00015654      0x4  ddi_ldl_iterator.o [6]
    .text                 ro code  0x00015658    0x468  mutex.o [9]
    .text                 ro code  0x00015ac0     0x6c  errcode.o [6]
    .text                 ro code  0x00015b2c    0x834  timer.o [9]
    .text                 ro code  0x00016360    0x9d4  media_buffer_manager.o [6]
    .text                 ro code  0x00016d34     0x88  ddi_ldl_iterator.o [6]
    .text                 ro code  0x00016dbc      0x4  ddi_ldl_util.o [6]
    .text                 ro code  0x00016dc0      0x4  ddi_ldl_util.o [6]
    .text                 ro code  0x00016dc4     0xa2  io_fgetl.o [9]
    .text                 ro code  0x00016e66     0x2a  io_util.o [9]
    .text                 ro code  0x00016e90     0xc0  modf.o [7]
    .text                 ro code  0x00016f50     0x20  DblCmpEq.o [7]
    .text                 ro code  0x00016f70    0x246  DblDiv.o [7]
    .text                 ro code  0x000171b8     0xe8  DblAdd.o [7]
    .text                 ro code  0x000172a0    0x1a2  DblMul.o [7]
    .text                 ro code  0x00017444     0x4c  DblToI32.o [7]
    .text                 ro code  0x00017490     0x2e  DblCmpGe.o [7]
    .text                 ro code  0x000174c0     0x2e  DblCmpLe.o [7]
    .text                 ro code  0x000174ee     0x12  io_util.o [9]
    .text                 ro code  0x00017500     0x16  io_util.o [9]
    .text                 ro code  0x00017516     0x1c  strcat.o [4]
    .text                 ro code  0x00017532      0x4  nomemory.o [5]
    .text                 ro code  0x00017536      0xa  delop_0.o [5]
    .text                 ro code  0x00017540     0xe6  simple_mutex.o [6]
    .text                 ro code  0x00017628     0xa4  ddi_nand_hal_init.o [6]
    .text                 ro code  0x000176cc      0xa  ddi_nand_data_drive_read_sector.o [6]
    .text                 ro code  0x000176d6      0x8  newaop_0.o [5]
    .text                 ro code  0x000176e0     0xfc  ddi_nand_hal_common.o [6]
    .text                 ro code  0x000177dc    0x274  deferred_task_queue.o [6]
    .text                 ro code  0x00017a50    0xff4  mapper.o [6]
    .text                 ro code  0x00018a44   0x1604  nonsequential_sectors_map.o [6]
    .text                 ro code  0x0001a048     0xf4  bad_block_table.o [6]
    .text                 ro code  0x0001a13c      0x4  ddi_nand_media_init.o [6]
    .text                 ro code  0x0001a140      0x4  ddi_nand_media_init.o [6]
    .text                 ro code  0x0001a144      0x4  ddi_nand_data_drive_erase.o [6]
    .text                 ro code  0x0001a148     0x50  io_fgetc.o [9]
    .text                 ro code  0x0001a198     0x30  io_fung.o [9]
    .text                 ro code  0x0001a1c8      0xc  io_util.o [9]
    .text                 ro code  0x0001a1d4      0xc  io_util.o [9]
    .text                 ro code  0x0001a1e0    0x16c  DblSub.o [7]
    .text                 ro code  0x0001a34c      0x6  abort.o [4]
    .text                 ro code  0x0001a354    0x33c  ddi_nand_hal_nfcphymedia.o [6]
    .text                 ro code  0x0001a690      0xa  ddi_nand_hal_common.o [6]
    .text                 ro code  0x0001a69a      0xe  deferred_task_queue.o [6]
    .text                 ro code  0x0001a6a8      0xe  deferred_task_queue.o [6]
    .text                 ro code  0x0001a6b6     0x10  deferred_task_queue.o [6]
    .text                 ro code  0x0001a6c8    0x10e  double_list.o [6]
    .text                 ro code  0x0001a7d6      0x4  deferred_task_queue.o [6]
    .text                 ro code  0x0001a7da      0xe  deferred_task.o [6]
    .text                 ro code  0x0001a7e8      0xe  deferred_task.o [6]
    .text                 ro code  0x0001a7f6     0x1a  deferred_task.o [6]
    .text                 ro code  0x0001a810     0x10  deferred_task_queue.o [6]
    .text                 ro code  0x0001a820     0x14  deferred_task.o [6]
    .text                 ro code  0x0001a834      0x4  deferred_task_queue.o [6]
    .text                 ro code  0x0001a838      0x4  persistent_phy_map.o [6]
    .text                 ro code  0x0001a83c    0x232  phy_map.o [6]
    .text                 ro code  0x0001aa6e      0x6  mapper.o [6]
    .text                 ro code  0x0001aa74    0x684  zone_map_cache.o [6]
    .text                 ro code  0x0001b0f8    0x2bc  persistent_phy_map.o [6]
    .text                 ro code  0x0001b3b4    0x580  ddi_nand_mapper_utilities.o [6]
    .text                 ro code  0x0001b934      0x4  mapper.o [6]
    .text                 ro code  0x0001b938      0x4  mapper.o [6]
    .text                 ro code  0x0001b93c      0x4  ddi_nand_data_drive_set_info.o [6]
    .text                 ro code  0x0001b940      0x4  mapper.o [6]
    .text                 ro code  0x0001b944     0x1a  ddi_nand_data_drive_erase.o [6]
    .text                 ro code  0x0001b95e     0x20  ddi_nand_data_drive_erase.o [6]
    .text                 ro code  0x0001b97e      0x4  ddi_nand_data_drive_read_sector.o [6]
    .text                 ro code  0x0001b982      0xe  ddi_nand_data_drive_erase.o [6]
    .text                 ro code  0x0001b990     0x10  ddi_nand_data_drive_erase.o [6]
    .text                 ro code  0x0001b9a0      0xe  ddi_nand_data_drive_erase.o [6]
    .text                 ro code  0x0001b9b0    0x1fe  ddi_block.o [6]
    .text                 ro code  0x0001bbae      0x4  ddi_nand_data_drive_erase.o [6]
    .text                 ro code  0x0001bbb2      0x6  persistent_phy_map.o [6]
    .text                 ro code  0x0001bbb8     0x24  mapper.o [6]
    .text                 ro code  0x0001bbdc     0x14  persistent_map.o [6]
    .text                 ro code  0x0001bbf0     0x1e  persistent_map.o [6]
    .text                 ro code  0x0001bc0e      0x4  mapper.o [6]
    .text                 ro code  0x0001bc14    0x2cc  ddi_metadata.o [6]
    .text                 ro code  0x0001bee0     0xec  ddi_nand_nssm_get_entry.o [6]
    .text                 ro code  0x0001bfcc     0x10  ddi_nand_data_drive_erase.o [6]
    .text                 ro code  0x0001bfdc     0x14  mapper.o [6]
    .text                 ro code  0x0001bff0    0x176  ddi_nand_mapper_get_info.o [6]
    .text                 ro code  0x0001c166      0x4  mapper.o [6]
    .text                 ro code  0x0001c16a      0x4  mapper.o [6]
    .text                 ro code  0x0001c16e      0x4  mapper.o [6]
    .text                 ro code  0x0001c172      0x4  mapper.o [6]
    .text                 ro code  0x0001c176      0x4  ddi_nand_mapper_utilities.o [6]
    .text                 ro code  0x0001c17a      0x4  ddi_nand_mapper_utilities.o [6]
    .text                 ro code  0x0001c17e      0x4  ddi_nand_data_drive_erase.o [6]
    .text                 ro code  0x0001c182      0x4  persistent_phy_map.o [6]
    .text                 ro code  0x0001c186      0x8  persistent_phy_map.o [6]
    .text                 ro code  0x0001c18e      0x2  ddi_nand_ndd_write_sector.o [6]
    .text                 ro code  0x0001c190      0x4  ddi_nand_mapper_utilities.o [6]
    .text                 ro code  0x0001c194      0x2  ddi_nand_ndd_write_sector.o [6]
    .text                 ro code  0x0001c196     0x10  mapper.o [6]
    .text                 ro code  0x0001c1a6     0x14  mapper.o [6]
    .text                 ro code  0x0001c1ba     0x16  mapper.o [6]
    .text                 ro code  0x0001c1d0      0x6  mapper.o [6]
    .text                 ro code  0x0001c1d8    0x53c  red_black_tree.o [6]
    .text                 ro code  0x0001c714    0x114  wlru.o [6]
    .text                 ro code  0x0001c828      0x4  nonsequential_sectors_map.o [6]
    .text                 ro code  0x0001c82c      0x4  ddi_nand_ndd_flush.o [6]
    .text                 ro code  0x0001c830     0xb8  cxxabi.o [5]
    .text                 ro code  0x0001c8e8      0xa  nonsequential_sectors_map.o [6]
    .text                 ro code  0x0001c8f2      0xc  red_black_tree.o [6]
    .text                 ro code  0x0001c8fe      0xe  persistent_map.o [6]
    .text                 ro code  0x0001c90c      0xe  persistent_map.o [6]
    .text                 ro code  0x0001c91a      0xc  red_black_tree.o [6]
    .text                 ro code  0x0001c928    0x24c  page_order_map.o [6]
    .text                 ro code  0x0001cb74     0x10  nonsequential_sectors_map.o [6]
    .text                 ro code  0x0001cb84     0x12  persistent_map.o [6]
    .text                 ro code  0x0001cb96      0xc  nonsequential_sectors_map.o [6]
    .text                 ro code  0x0001cba2     0x88  ddi_nand_media_regions.o [6]
    .text                 ro code  0x0001cc2a      0xc  nonsequential_sectors_map.o [6]
    .text                 ro code  0x0001cc38    0x31c  ddi_page.o [6]
    .text                 ro code  0x0001cf54      0x4  ddi_nand_data_drive_erase.o [6]
    .text                 ro code  0x0001cf58     0x2a  ddi_nand_data_drive_erase.o [6]
    .text                 ro code  0x0001cf82      0x4  nonsequential_sectors_map.o [6]
    .text                 ro code  0x0001cf86      0x4  page_order_map.o [6]
    .text                 ro code  0x0001cf8a      0x8  ddi_nand_ndd_write_sector.o [6]
    .text                 ro code  0x0001cf92      0x4  persistent_map.o [6]
    .text                 ro code  0x0001cf96     0x1a  ddi_nand_data_drive_erase.o [6]
    .text                 ro code  0x0001cfb0      0xe  ddi_nand_data_drive_erase.o [6]
    .text                 ro code  0x0001cfbe     0x10  ddi_nand_data_drive_erase.o [6]
    .text                 ro code  0x0001cfce      0xe  ddi_nand_data_drive_erase.o [6]
    .text                 ro code  0x0001cfdc     0x1a  ddi_nand_ndd_write_sector.o [6]
    .text                 ro code  0x0001cff8     0x18  nonsequential_sectors_map.o [6]
    .text                 ro code  0x0001d010     0xd6  deferred_task.o [6]
    .text                 ro code  0x0001d0e6      0x4  nonsequential_sectors_map.o [6]
    .text                 ro code  0x0001d0ea     0x22  io_util.o [9]
    .text                 ro code  0x0001d10c     0x2a  io_util.o [9]
    .text                 ro code  0x0001d136      0xc  ddi_nand_hal_nfcphymedia.o [6]
    .text                 ro code  0x0001d142     0x22  wl_common.o [6]
    .text                 ro code  0x0001d164      0xc  ddi_nand_data_drive_erase.o [6]
    .text                 ro code  0x0001d170      0x6  ddi_nand_hal_nfcphymedia.o [6]
    .text                 ro code  0x0001d176     0x10  deferred_task_queue.o [6]
    .text                 ro code  0x0001d186      0x4  wlru.o [6]
    .text                 ro code  0x0001d18a     0x18  double_list.o [6]
    .text                 ro code  0x0001d1a2     0x18  deferred_task.o [6]
    .text                 ro code  0x0001d1ba     0x18  deferred_task.o [6]
    .text                 ro code  0x0001d1d2     0x12  deferred_task.o [6]
    .text                 ro code  0x0001d1e4      0x4  deferred_task.o [6]
    .text                 ro code  0x0001d1e8      0x4  delaop_0.o [5]
    .text                 ro code  0x0001d1ec    0x9ac  persistent_map.o [6]
    .text                 ro code  0x0001db98      0xe  ddi_nand_data_drive_erase.o [6]
    .text                 ro code  0x0001dba8    0x22c  zone_map_section_page.o [6]
    .text                 ro code  0x0001ddd4      0x4  persistent_map.o [6]
    .text                 ro code  0x0001ddd8      0x4  persistent_map.o [6]
    .text                 ro code  0x0001dddc      0x4  persistent_map.o [6]
    .text                 ro code  0x0001dde0      0xe  zone_map_section_page.o [6]
    .text                 ro code  0x0001ddee      0x4  persistent_map.o [6]
    .text                 ro code  0x0001ddf2      0x4  zone_map_section_page.o [6]
    .text                 ro code  0x0001ddf6     0x18  simple_timer.o [6]
    .text                 ro code  0x0001de10    0x19a  ddi_nand_mapper_zone_map_cache_lookup.o [6]
    .text                 ro code  0x0001dfaa      0xe  persistent_map.o [6]
    .text                 ro code  0x0001dfb8      0x4  ddi_nand_mapper_utilities.o [6]
    .text                 ro code  0x0001dfbc      0x8  ddi_nand_mapper_utilities.o [6]
    .text                 ro code  0x0001dfc4      0x4  ddi_nand_mapper_utilities.o [6]
    .text                 ro code  0x0001dfc8      0xe  ddi_nand_mapper_utilities.o [6]
    .text                 ro code  0x0001dfd6     0x1c  ddi_nand_data_drive_erase.o [6]
    .text                 ro code  0x0001dff2      0xa  ddi_nand_data_drive_erase.o [6]
    .text                 ro code  0x0001dffc      0xc  ddi_nand_data_drive_erase.o [6]
    .text                 ro code  0x0001e008     0x1c  ddi_nand_data_drive_erase.o [6]
    .text                 ro code  0x0001e024      0xc  ddi_nand_data_drive_erase.o [6]
    .text                 ro code  0x0001e030      0xc  ddi_block.o [6]
    .text                 ro code  0x0001e03c     0x1c  persistent_map.o [6]
    .text                 ro code  0x0001e058      0x8  ddi_block.o [6]
    .text                 ro code  0x0001e060     0x12  ddi_block.o [6]
    .text                 ro code  0x0001e072     0x12  ddi_block.o [6]
    .text                 ro code  0x0001e084      0x6  ddi_nand_data_drive_erase.o [6]
    .text                 ro code  0x0001e08a      0xe  ddi_nand_data_drive_erase.o [6]
    .text                 ro code  0x0001e098     0x18  ddi_nand_data_drive_read_sector.o [6]
    .text                 ro code  0x0001e0b0     0x18  red_black_tree.o [6]
    .text                 ro code  0x0001e0c8     0x18  red_black_tree.o [6]
    .text                 ro code  0x0001e0e0      0xe  red_black_tree.o [6]
    .text                 ro code  0x0001e0ee      0xe  red_black_tree.o [6]
    .text                 ro code  0x0001e0fc      0x4  wlru.o [6]
    .text                 ro code  0x0001e100      0x4  wlru.o [6]
    .text                 ro code  0x0001e104     0x12  red_black_tree.o [6]
    .text                 ro code  0x0001e116      0x2  red_black_tree.o [6]
    .text                 ro code  0x0001e118      0x6  persistent_map.o [6]
    .text                 ro code  0x0001e11e      0x4  nonsequential_sectors_map.o [6]
    .text                 ro code  0x0001e122      0xc  ddi_page.o [6]
    .text                 ro code  0x0001e12e      0x6  ddi_nand_ndd_write_sector.o [6]
    .text                 ro code  0x0001e134      0xc  ddi_page.o [6]
    .text                 ro code  0x0001e140     0x1c  zone_map_section_page.o [6]
    .text                 ro code  0x0001e15c      0xc  ddi_page.o [6]
    .text                 ro code  0x0001e168     0x12  ddi_page.o [6]
    .text                 ro code  0x0001e17a      0x6  ddi_page.o [6]
    .text                 ro code  0x0001e180      0x8  ddi_page.o [6]
    .text                 ro code  0x0001e188      0x8  ddi_page.o [6]
    .text                 ro code  0x0001e190     0x12  ddi_page.o [6]
    .text                 ro code  0x0001e1a2     0x1a  ddi_nand_data_drive_erase.o [6]
    .text                 ro code  0x0001e1bc     0x10  ddi_nand_data_drive_erase.o [6]
    .text                 ro code  0x0001e1cc      0x4  ddi_nand_ndd_write_sector.o [6]
    .text                 ro code  0x0001e1d0      0x4  ddi_nand_data_drive_erase.o [6]
    .text                 ro code  0x0001e1d4      0xc  nonsequential_sectors_map.o [6]
    .text                 ro code  0x0001e1e0     0x10  deferred_task.o [6]
    .text                 ro code  0x0001e1f0     0x12  io_util.o [9]
    .text                 ro code  0x0001e202      0x2  ddi_nand_hal_nfcphymedia.o [6]
    .text                 ro code  0x0001e204     0x1a  deferred_task.o [6]
    .text                 ro code  0x0001e21e      0x6  persistent_map.o [6]
    .text                 ro code  0x0001e224     0x16  persistent_map.o [6]
    .text                 ro code  0x0001e23a      0x4  persistent_map.o [6]
    .text                 ro code  0x0001e23e      0x6  persistent_map.o [6]
    .text                 ro code  0x0001e244     0x14  zone_map_section_page.o [6]
    .text                 ro code  0x0001e258     0xb2  psp_tius.o [9]
    .text                 ro code  0x0001e30a     0x10  ddi_block.o [6]
    .text                 ro code  0x0001e31a      0x6  ddi_page.o [6]
    .text                 ro code  0x0001e320      0x6  ddi_page.o [6]
    .text                 ro code  0x0001e326      0xe  zone_map_section_page.o [6]
    .text                 ro code  0x0001e334     0x1e  ddi_page.o [6]
    .text                 ro code  0x0001e352      0x2  nonsequential_sectors_map.o [6]
    .text                 ro code  0x0001e354      0xc  deferred_task.o [6]
    .text                 ro code  0x0001e360     0x10  zone_map_section_page.o [6]
    .text                 ro code  0x0001e370     0xf2  psp_mat1.o [9]
    .text                 ro code  0x0001e462     0x4c  psp_mat3.o [9]
    .text                 ro code  0x0001e4ae     0xf4  psp_mat2.o [9]
    .text                 ro code  0x0001e5a2      0x4  deferred_task.o [6]
    .text                 ro code  0x0001e5a8    0x154  sh_cd.o [12]
    .text                 ro code  0x0001e6fc     0xa0  sh_cmdlist.o [12]
    .text                 ro code  0x0001e79c    0x210  sh_copy.o [12]
    .text                 ro code  0x0001e9ac     0x44  io_fputc.o [9]
    .text                 ro code  0x0001e9f0    0x124  sh_create.o [12]
    .text                 ro code  0x0001eb14    0x120  sh_del.o [12]
    .text                 ro code  0x0001ec34    0x4b8  sh_di.o [12]
    .text                 ro code  0x0001f0ec    0x164  sh_dir.o [12]
    .text                 ro code  0x0001f250    0x3f0  dir_read.o [8]
    .text                 ro code  0x0001f640    0x1d0  sh_disect.o [12]
    .text                 ro code  0x0001f810     0x68  sh_exit.o [12]
    .text                 ro code  0x0001f878    0x190  sh_format.o [12]
    .text                 ro code  0x0001fa08    0x118  sh_help.o [12]
    .text                 ro code  0x0001fb20    0x10c  sh_mkdir.o [12]
    .text                 ro code  0x0001fc2c     0x9c  sh_pwd.o [12]
    .text                 ro code  0x0001fcc8    0x248  sh_read.o [12]
    .text                 ro code  0x0001ff10    0x190  sh_rename.o [12]
    .text                 ro code  0x000200a0    0x12c  sh_rmdir.o [12]
    .text                 ro code  0x000201cc     0xe4  sh_sh.o [12]
    .text                 ro code  0x000202b0    0x138  sh_type.o [12]
    .text                 ro code  0x000203e8    0x2d8  sh_write.o [12]
    .text                 ro code  0x000206c0    0xbc8  nfc_wl.o [6]
    .text                 ro code  0x00021288     0x10  nfc_k60f120m.o [3]
    .text                 ro code  0x00021298    0xaba  nfc.o [3]
    .text                 ro code  0x00021d54     0x4c  idletask.o [9]
    .text                 ro code  0x00021da0    0x158  hwtimer_systick.o [3]
    .text                 ro code  0x00021ef8      0x4  hwtimer_kinetis.o [3]
    .text                 ro code  0x00021efc    0x144  ddi_nand_media_shutdown.o [6]
    .text                 ro code  0x00022040      0x4  ddi_nand_data_drive_erase.o [6]
    .text                 ro code  0x00022044     0xfc  ddi_nand_media_get_info.o [6]
    .text                 ro code  0x00022140      0x4  ddi_nand_media_get_info.o [6]
    .text                 ro code  0x00022144      0x4  ddi_nand_media_get_info.o [6]
    .text                 ro code  0x00022148      0xe  ddi_nand_media_get_info.o [6]
    .text                 ro code  0x00022156     0x18  ddi_nand_media_get_info.o [6]
    .text                 ro code  0x0002216e      0x6  ddi_nand_media_get_info.o [6]
    .text                 ro code  0x00022174     0xc8  ddi_nand_media_allocate.o [6]
    .text                 ro code  0x0002223c     0x14  ddi_nand_data_drive_set_info.o [6]
    .text                 ro code  0x00022250    0x1b0  ddi_nand_media_discover.o [6]
    .text                 ro code  0x00022400      0xe  ddi_nand_data_drive_set_info.o [6]
    .text                 ro code  0x00022410     0x18  ddi_nand_media_discover.o [6]
    .text                 ro code  0x00022428    0x24c  ddi_nand_data_drive_init.o [6]
    .text                 ro code  0x00022674      0x4  ddi_nand_data_drive_init.o [6]
    .text                 ro code  0x00022678   0x1af8  sai_int_ksai.o [3]
    .text                 ro code  0x00024170     0x68  sai_mk60.o [3]
    .text                 ro code  0x000241d8    0x350  ddi_nand_data_drive_read_sector.o [6]
    .text                 ro code  0x00024528     0x26  ddi_nand_data_drive_read_sector.o [6]
    .text                 ro code  0x0002454e      0x4  ddi_nand_data_drive_read_sector.o [6]
    .text                 ro code  0x00024554    0x2f8  ddi_nand_ndd_write_sector.o [6]
    .text                 ro code  0x0002484c      0x4  ddi_nand_ndd_write_sector.o [6]
    .text                 ro code  0x00024850    0x5f8  ddi_nand_data_drive_erase.o [6]
    .text                 ro code  0x00024e48     0x84  ddi_nand_data_drive_get_info.o [6]
    .text                 ro code  0x00024ecc     0x16  ddi_nand_media_init.o [6]
    .text                 ro code  0x00024ee2      0xe  ddi_nand_media_discover.o [6]
    .text                 ro code  0x00024ef0      0xc  ddi_nand_media_discover.o [6]
    .text                 ro code  0x00024efc      0x2  ddi_nand_media_discover.o [6]
    .text                 ro code  0x00024efe     0x12  nonsequential_sectors_map.o [6]
    .text                 ro code  0x00024f10      0xc  nonsequential_sectors_map.o [6]
    .text                 ro code  0x00024f1c      0x6  nonsequential_sectors_map.o [6]
    .text                 ro code  0x00024f22      0xe  nonsequential_sectors_map.o [6]
    .text                 ro code  0x00024f30      0x6  nonsequential_sectors_map.o [6]
    .text                 ro code  0x00024f36      0x6  nonsequential_sectors_map.o [6]
    .text                 ro code  0x00024f3c     0x16  nonsequential_sectors_map.o [6]
    .text                 ro code  0x00024f52     0x1c  ddi_nand_media_discover.o [6]
    .text                 ro code  0x00024f6e      0xe  ddi_nand_media_discover.o [6]
    .text                 ro code  0x00024f7c      0xc  ddi_nand_media_discover.o [6]
    .text                 ro code  0x00024f88      0xe  ddi_nand_media_discover.o [6]
    .text                 ro code  0x00024f96      0x4  ddi_nand_media_discover.o [6]
    .text                 ro code  0x00024f9a     0x16  ddi_nand_media_discover.o [6]
    .text                 ro code  0x00024fb0     0x16  ddi_nand_media_discover.o [6]
    .text                 ro code  0x00024fc6      0xc  red_black_tree.o [6]
    .text                 ro code  0x00024fd2      0x2  ddi_nand_hal_nfcphymedia.o [6]
    .text                 ro code  0x00024fd4      0xc  ddi_nand_hal_nfcphymedia.o [6]
    .text                 ro code  0x00024fe0      0xe  ddi_nand_hal_nfcphymedia.o [6]
    .text                 ro code  0x00024fee     0x16  ddi_nand_hal_nfcphymedia.o [6]
    .text                 ro code  0x00025004     0x64  ddi_nand_ndd_flush.o [6]
    .text                 ro code  0x00025068      0x4  xpurevirtual.o [4]
    .text                 ro code  0x0002506c     0xa6  packbits_init3.o [10]
  KERNEL                  ro code  0x00025120    0x2c0  dispatch.o [9]
  .rodata                 const    0x000253e0      0x8  ddi_nand_media_get_info.o [6]
  .iar.init_table         const    0x000253e8     0x48  - Linker created -
  .rodata                 const    0x00025430      0x8  demo.o [1]
  .rodata                 const    0x00025438      0x4  demo.o [1]
  .rodata                 const    0x0002543c      0x8  demo.o [1]
  .rodata                 const    0x00025444      0x8  demo.o [1]
  .rodata                 const    0x0002544c      0x4  demo.o [1]
  .rodata                 const    0x00025450      0x8  demo.o [1]
  .rodata                 const    0x00025458      0x4  demo.o [1]
  .rodata                 const    0x0002545c      0x4  demo.o [1]
  .rodata                 const    0x00025460      0x8  demo.o [1]
  .rodata                 const    0x00025468      0x8  demo.o [1]
  .rodata                 const    0x00025470      0x8  demo.o [1]
  .rodata                 const    0x00025478      0x8  demo.o [1]
  .rodata                 const    0x00025480      0x4  demo.o [1]
  .rodata                 const    0x00025484      0x8  demo.o [1]
  .rodata                 const    0x0002548c      0x4  demo.o [1]
  .rodata                 const    0x00025490      0x8  demo.o [1]
  .rodata                 const    0x00025498      0x4  demo.o [1]
  .rodata                 const    0x0002549c      0x8  demo.o [1]
  .rodata                 const    0x000254a4      0x8  demo.o [1]
  .rodata                 const    0x000254ac      0x8  demo.o [1]
  .rodata                 const    0x000254b4      0x8  demo.o [1]
  .rodata                 const    0x000254bc      0xc  demo.o [1]
  .rodata                 const    0x000254c8      0xc  demo.o [1]
  .rodata                 const    0x000254d4     0x10  demo.o [1]
  .rodata                 const    0x000254e4     0x10  demo.o [1]
  .rodata                 const    0x000254f4     0x1c  demo.o [1]
  .rodata                 const    0x00025510     0x40  demo.o [1]
  .rodata                 const    0x00025550     0x40  demo.o [1]
  .rodata                 const    0x00025590     0x3c  demo.o [1]
  .rodata                 const    0x000255cc     0x1c  demo.o [1]
  .rodata                 const    0x000255e8     0x18  demo.o [1]
  .rodata                 const    0x00025600     0x3c  demo.o [1]
  .rodata                 const    0x0002563c     0x10  demo.o [1]
  .rodata                 const    0x0002564c     0x18  demo.o [1]
  .rodata                 const    0x00025664     0x14  demo.o [1]
  .rodata                 const    0x00025678     0x24  demo.o [1]
  .rodata                 const    0x0002569c     0x20  demo.o [1]
  .rodata                 const    0x000256bc     0x1c  demo.o [1]
  .rodata                 const    0x000256d8     0x20  demo.o [1]
  .rodata                 const    0x000256f8     0x30  demo.o [1]
  .rodata                 const    0x00025728     0x1c  demo.o [1]
  .rodata                 const    0x00025744     0x1c  demo.o [1]
  .rodata                 const    0x00025760     0x20  demo.o [1]
  .rodata                 const    0x00025780     0x1c  demo.o [1]
  .rodata                 const    0x0002579c     0x20  demo.o [1]
  .rodata                 const    0x000257bc     0x24  demo.o [1]
  .rodata                 const    0x000257e0     0x18  demo.o [1]
  .rodata                 const    0x000257f8     0x54  demo.o [1]
  .rodata                 const    0x0002584c     0x5c  demo.o [1]
  .rodata                 const    0x000258a8     0x14  demo.o [1]
  .rodata                 const    0x000258bc     0x20  demo.o [1]
  .rodata                 const    0x000258dc     0x28  demo.o [1]
  .rodata                 const    0x00025904      0x8  demo.o [1]
  .rodata                 const    0x0002590c      0xc  demo.o [1]
  .rodata                 const    0x00025918     0x20  demo.o [1]
  .rodata                 const    0x00025938     0x20  demo.o [1]
  .rodata                 const    0x00025958     0x20  demo.o [1]
  .rodata                 const    0x00025978     0x20  demo.o [1]
  .rodata                 const    0x00025998     0x24  demo.o [1]
  .rodata                 const    0x000259bc     0xc8  demo.o [1]
  .rodata                 const    0x00025a84     0x10  mfs_misc.o [8]
  .rodata                 const    0x00025a94     0x1c  mfs_misc.o [8]
  .rodata                 const    0x00025ab0     0x14  mfs_misc.o [8]
  .rodata                 const    0x00025ac4     0x14  mfs_misc.o [8]
  .rodata                 const    0x00025ad8     0x14  mfs_misc.o [8]
  .rodata                 const    0x00025aec     0x14  mfs_misc.o [8]
  .rodata                 const    0x00025b00     0x18  mfs_misc.o [8]
  .rodata                 const    0x00025b18     0x24  mfs_misc.o [8]
  .rodata                 const    0x00025b3c     0x24  mfs_misc.o [8]
  .rodata                 const    0x00025b60     0x1c  mfs_misc.o [8]
  .rodata                 const    0x00025b7c     0x14  mfs_misc.o [8]
  .rodata                 const    0x00025b90     0x28  mfs_misc.o [8]
  .rodata                 const    0x00025bb8     0x14  mfs_misc.o [8]
  .rodata                 const    0x00025bcc     0x18  mfs_misc.o [8]
  .rodata                 const    0x00025be4     0x10  mfs_misc.o [8]
  .rodata                 const    0x00025bf4     0x10  mfs_misc.o [8]
  .rodata                 const    0x00025c04     0x18  mfs_misc.o [8]
  .rodata                 const    0x00025c1c     0x10  mfs_misc.o [8]
  .rodata                 const    0x00025c2c     0x18  mfs_misc.o [8]
  .rodata                 const    0x00025c44     0x18  mfs_misc.o [8]
  .rodata                 const    0x00025c5c     0x10  mfs_misc.o [8]
  .rodata                 const    0x00025c6c     0x14  mfs_misc.o [8]
  .rodata                 const    0x00025c80      0x8  mfs_misc.o [8]
  .rodata                 const    0x00025c88     0x1c  mfs_misc.o [8]
  .rodata                 const    0x00025ca4     0x14  mfs_misc.o [8]
  .rodata                 const    0x00025cb8     0x1c  mfs_misc.o [8]
  .rodata                 const    0x00025cd4     0x1c  mfs_misc.o [8]
  .rodata                 const    0x00025cf0     0x18  mfs_misc.o [8]
  .rodata                 const    0x00025d08     0x20  mfs_misc.o [8]
  .rodata                 const    0x00025d28     0x10  mfs_misc.o [8]
  .rodata                 const    0x00025d38     0x14  mfs_misc.o [8]
  .rodata                 const    0x00025d4c     0x1c  mfs_misc.o [8]
  .rodata                 const    0x00025d68     0x1c  mfs_misc.o [8]
  .rodata                 const    0x00025d84     0x14  mfs_misc.o [8]
  .rodata                 const    0x00025d98     0x18  mfs_misc.o [8]
  .rodata                 const    0x00025db0     0x14  mfs_misc.o [8]
  .rodata                 const    0x00025dc4     0x1c  mfs_misc.o [8]
  .rodata                 const    0x00025de0     0x20  mfs_misc.o [8]
  .rodata                 const    0x00025e00     0x14  mfs_misc.o [8]
  .rodata                 const    0x00025e14     0x14  shell.o [12]
  .rodata                 const    0x00025e28      0xc  shell.o [12]
  .rodata                 const    0x00025e34     0x30  shell.o [12]
  .rodata                 const    0x00025e64      0xc  shell.o [12]
  .rodata                 const    0x00025e70      0x8  shell.o [12]
  .rodata                 const    0x00025e78     0x38  shell.o [12]
  .rodata                 const    0x00025eb0     0x14  shell.o [12]
  .rodata                 const    0x00025ec4     0x28  sh_cd.o [12]
  .rodata                 const    0x00025eec     0x2c  sh_cd.o [12]
  .rodata                 const    0x00025f18     0x1c  sh_cd.o [12]
  .rodata                 const    0x00025f34     0x20  sh_cd.o [12]
  .rodata                 const    0x00025f54     0x14  sh_cd.o [12]
  .rodata                 const    0x00025f68     0x18  sh_cd.o [12]
  .rodata                 const    0x00025f80     0x34  sh_cd.o [12]
  .rodata                 const    0x00025fb4      0x8  sh_util.o [12]
  .rodata                 const    0x00025fbc      0x8  sh_util.o [12]
  .rodata                 const    0x00025fc4      0x8  sh_cmdlist.o [12]
  .rodata                 const    0x00025fcc      0xc  sh_cmdlist.o [12]
  .rodata                 const    0x00025fd8     0x28  sh_copy.o [12]
  .rodata                 const    0x00026000     0x20  sh_copy.o [12]
  .rodata                 const    0x00026020     0x2c  sh_copy.o [12]
  .rodata                 const    0x0002604c     0x24  sh_copy.o [12]
  .rodata                 const    0x00026070     0x2c  sh_copy.o [12]
  .rodata                 const    0x0002609c     0x40  sh_copy.o [12]
  .rodata                 const    0x000260dc     0x18  sh_copy.o [12]
  .rodata                 const    0x000260f4     0x1c  sh_copy.o [12]
  .rodata                 const    0x00026110     0x24  sh_copy.o [12]
  .rodata                 const    0x00026134     0x20  sh_copy.o [12]
  .rodata                 const    0x00026154     0x28  sh_create.o [12]
  .rodata                 const    0x0002617c     0x20  sh_create.o [12]
  .rodata                 const    0x0002619c     0x2c  sh_create.o [12]
  .rodata                 const    0x000261c8     0x20  sh_create.o [12]
  .rodata                 const    0x000261e8     0x1c  sh_create.o [12]
  .rodata                 const    0x00026204     0x20  sh_create.o [12]
  .rodata                 const    0x00026224     0x28  sh_create.o [12]
  .rodata                 const    0x0002624c     0x20  sh_create.o [12]
  .rodata                 const    0x0002626c     0x28  sh_del.o [12]
  .rodata                 const    0x00026294     0x20  sh_del.o [12]
  .rodata                 const    0x000262b4     0x2c  sh_del.o [12]
  .rodata                 const    0x000262e0     0x18  sh_del.o [12]
  .rodata                 const    0x000262f8      0xc  sh_del.o [12]
  .rodata                 const    0x00026304     0x14  sh_del.o [12]
  .rodata                 const    0x00026318     0x24  sh_del.o [12]
  .rodata                 const    0x0002633c     0x18  sh_di.o [12]
  .rodata                 const    0x00026354     0x20  sh_di.o [12]
  .rodata                 const    0x00026374     0x1c  sh_di.o [12]
  .rodata                 const    0x00026390     0x20  sh_di.o [12]
  .rodata                 const    0x000263b0     0x1c  sh_di.o [12]
  .rodata                 const    0x000263cc     0x20  sh_di.o [12]
  .rodata                 const    0x000263ec     0x20  sh_di.o [12]
  .rodata                 const    0x0002640c     0x1c  sh_di.o [12]
  .rodata                 const    0x00026428     0x20  sh_di.o [12]
  .rodata                 const    0x00026448     0x20  sh_di.o [12]
  .rodata                 const    0x00026468     0x20  sh_di.o [12]
  .rodata                 const    0x00026488     0x28  sh_di.o [12]
  .rodata                 const    0x000264b0     0x28  sh_di.o [12]
  .rodata                 const    0x000264d8     0x28  sh_di.o [12]
  .rodata                 const    0x00026500     0x20  sh_di.o [12]
  .rodata                 const    0x00026520     0x20  sh_di.o [12]
  .rodata                 const    0x00026540     0x28  sh_di.o [12]
  .rodata                 const    0x00026568     0x20  sh_di.o [12]
  .rodata                 const    0x00026588     0x20  sh_di.o [12]
  .rodata                 const    0x000265a8     0x1c  sh_di.o [12]
  .rodata                 const    0x000265c4     0x1c  sh_di.o [12]
  .rodata                 const    0x000265e0     0x28  sh_di.o [12]
  .rodata                 const    0x00026608     0x18  sh_di.o [12]
  .rodata                 const    0x00026620     0x18  sh_di.o [12]
  .rodata                 const    0x00026638     0x20  sh_di.o [12]
  .rodata                 const    0x00026658     0x20  sh_di.o [12]
  .rodata                 const    0x00026678     0x20  sh_di.o [12]
  .rodata                 const    0x00026698     0x20  sh_di.o [12]
  .rodata                 const    0x000266b8     0x20  sh_di.o [12]
  .rodata                 const    0x000266d8     0x20  sh_di.o [12]
  .rodata                 const    0x000266f8     0x18  sh_di.o [12]
  .rodata                 const    0x00026710     0x2c  sh_di.o [12]
  .rodata                 const    0x0002673c     0x28  sh_di.o [12]
  .rodata                 const    0x00026764     0x24  sh_di.o [12]
  .rodata                 const    0x00026788     0x18  sh_di.o [12]
  .rodata                 const    0x000267a0     0x20  sh_di.o [12]
  .rodata                 const    0x000267c0     0x24  sh_di.o [12]
  .rodata                 const    0x000267e4     0x24  sh_di.o [12]
  .rodata                 const    0x00026808     0x28  sh_dir.o [12]
  .rodata                 const    0x00026830     0x20  sh_dir.o [12]
  .rodata                 const    0x00026850     0x14  sh_dir.o [12]
  .rodata                 const    0x00026864     0x24  sh_dir.o [12]
  .rodata                 const    0x00026888     0x24  sh_dir.o [12]
  .rodata                 const    0x000268ac     0x1c  sh_dir.o [12]
  .rodata                 const    0x000268c8     0x24  sh_dir.o [12]
  .rodata                 const    0x000268ec     0x24  sh_dir.o [12]
  .rodata                 const    0x00026910     0x30  sh_dir.o [12]
  .rodata                 const    0x00026940     0x28  sh_disect.o [12]
  .rodata                 const    0x00026968     0x18  sh_disect.o [12]
  .rodata                 const    0x00026980     0x20  sh_disect.o [12]
  .rodata                 const    0x000269a0     0x28  sh_disect.o [12]
  .rodata                 const    0x000269c8     0x24  sh_disect.o [12]
  .rodata                 const    0x000269ec     0x10  sh_disect.o [12]
  .rodata                 const    0x000269fc      0x8  sh_disect.o [12]
  .rodata                 const    0x00026a04     0x18  sh_disect.o [12]
  .rodata                 const    0x00026a1c     0x20  sh_disect.o [12]
  .rodata                 const    0x00026a3c     0x24  sh_disect.o [12]
  .rodata                 const    0x00026a60     0x24  sh_disect.o [12]
  .rodata                 const    0x00026a84      0xc  sh_exit.o [12]
  .rodata                 const    0x00026a90      0x8  sh_format.o [12]
  .rodata                 const    0x00026a98      0x4  sh_format.o [12]
  .rodata                 const    0x00026a9c      0x4  sh_format.o [12]
  .rodata                 const    0x00026aa0      0x4  sh_format.o [12]
  .rodata                 const    0x00026aa4      0x4  sh_format.o [12]
  .rodata                 const    0x00026aa8     0x28  sh_format.o [12]
  .rodata                 const    0x00026ad0     0x24  sh_format.o [12]
  .rodata                 const    0x00026af4     0x10  sh_format.o [12]
  .rodata                 const    0x00026b04     0x20  sh_format.o [12]
  .rodata                 const    0x00026b24     0x2c  sh_format.o [12]
  .rodata                 const    0x00026b50      0x8  sh_format.o [12]
  .rodata                 const    0x00026b58     0x20  sh_format.o [12]
  .rodata                 const    0x00026b78     0x28  sh_format.o [12]
  .rodata                 const    0x00026ba0     0x40  sh_format.o [12]
  .rodata                 const    0x00026be0     0x34  sh_format.o [12]
  .rodata                 const    0x00026c14     0x14  sh_format.o [12]
  .rodata                 const    0x00026c28      0x8  sh_help.o [12]
  .rodata                 const    0x00026c30      0x8  sh_help.o [12]
  .rodata                 const    0x00026c38     0x18  sh_help.o [12]
  .rodata                 const    0x00026c50      0x8  sh_help.o [12]
  .rodata                 const    0x00026c58     0x28  sh_help.o [12]
  .rodata                 const    0x00026c80     0x10  sh_help.o [12]
  .rodata                 const    0x00026c90     0x18  sh_help.o [12]
  .rodata                 const    0x00026ca8     0x28  sh_help.o [12]
  .rodata                 const    0x00026cd0     0x28  sh_mkdir.o [12]
  .rodata                 const    0x00026cf8     0x2c  sh_mkdir.o [12]
  .rodata                 const    0x00026d24     0x20  sh_mkdir.o [12]
  .rodata                 const    0x00026d44     0x20  sh_mkdir.o [12]
  .rodata                 const    0x00026d64     0x14  sh_mkdir.o [12]
  .rodata                 const    0x00026d78     0x18  sh_mkdir.o [12]
  .rodata                 const    0x00026d90     0x30  sh_mkdir.o [12]
  .rodata                 const    0x00026dc0     0x28  sh_pwd.o [12]
  .rodata                 const    0x00026de8     0x20  sh_pwd.o [12]
  .rodata                 const    0x00026e08      0x8  sh_pwd.o [12]
  .rodata                 const    0x00026e10      0x8  sh_pwd.o [12]
  .rodata                 const    0x00026e18      0xc  sh_pwd.o [12]
  .rodata                 const    0x00026e24     0x28  sh_read.o [12]
  .rodata                 const    0x00026e4c     0x18  sh_read.o [12]
  .rodata                 const    0x00026e64     0x20  sh_read.o [12]
  .rodata                 const    0x00026e84      0x8  sh_read.o [12]
  .rodata                 const    0x00026e8c      0x8  sh_read.o [12]
  .rodata                 const    0x00026e94     0x1c  sh_read.o [12]
  .rodata                 const    0x00026eb0     0x1c  sh_read.o [12]
  .rodata                 const    0x00026ecc     0x2c  sh_read.o [12]
  .rodata                 const    0x00026ef8     0x14  sh_read.o [12]
  .rodata                 const    0x00026f0c      0x8  sh_read.o [12]
  .rodata                 const    0x00026f14     0x20  sh_read.o [12]
  .rodata                 const    0x00026f34     0x20  sh_read.o [12]
  .rodata                 const    0x00026f54     0x30  sh_read.o [12]
  .rodata                 const    0x00026f84     0x38  sh_read.o [12]
  .rodata                 const    0x00026fbc     0x28  sh_read.o [12]
  .rodata                 const    0x00026fe4     0x2c  sh_read.o [12]
  .rodata                 const    0x00027010     0x34  sh_read.o [12]
  .rodata                 const    0x00027044     0x20  sh_read.o [12]
  .rodata                 const    0x00027064     0x28  sh_rename.o [12]
  .rodata                 const    0x0002708c     0x2c  sh_rename.o [12]
  .rodata                 const    0x000270b8     0x34  sh_rename.o [12]
  .rodata                 const    0x000270ec     0x20  sh_rename.o [12]
  .rodata                 const    0x0002710c     0x18  sh_rename.o [12]
  .rodata                 const    0x00027124     0x1c  sh_rename.o [12]
  .rodata                 const    0x00027140     0x20  sh_rename.o [12]
  .rodata                 const    0x00027160     0x28  sh_rename.o [12]
  .rodata                 const    0x00027188     0x24  sh_rename.o [12]
  .rodata                 const    0x000271ac     0x28  sh_rmdir.o [12]
  .rodata                 const    0x000271d4     0x2c  sh_rmdir.o [12]
  .rodata                 const    0x00027200     0x20  sh_rmdir.o [12]
  .rodata                 const    0x00027220     0x20  sh_rmdir.o [12]
  .rodata                 const    0x00027240     0x14  sh_rmdir.o [12]
  .rodata                 const    0x00027254     0x14  sh_rmdir.o [12]
  .rodata                 const    0x00027268     0x18  sh_rmdir.o [12]
  .rodata                 const    0x00027280     0x30  sh_rmdir.o [12]
  .rodata                 const    0x000272b0     0x28  sh_sh.o [12]
  .rodata                 const    0x000272d8     0x20  sh_sh.o [12]
  .rodata                 const    0x000272f8     0x10  sh_sh.o [12]
  .rodata                 const    0x00027308     0x18  sh_sh.o [12]
  .rodata                 const    0x00027320     0x28  sh_sh.o [12]
  .rodata                 const    0x00027348     0x20  sh_type.o [12]
  .rodata                 const    0x00027368     0x2c  sh_type.o [12]
  .rodata                 const    0x00027394     0x20  sh_type.o [12]
  .rodata                 const    0x000273b4     0x38  sh_type.o [12]
  .rodata                 const    0x000273ec     0x10  sh_type.o [12]
  .rodata                 const    0x000273fc     0x18  sh_type.o [12]
  .rodata                 const    0x00027414     0x28  sh_type.o [12]
  .rodata                 const    0x0002743c     0x28  sh_write.o [12]
  .rodata                 const    0x00027464     0x20  sh_write.o [12]
  .rodata                 const    0x00027484     0x18  sh_write.o [12]
  .rodata                 const    0x0002749c      0x8  sh_write.o [12]
  .rodata                 const    0x000274a4      0x8  sh_write.o [12]
  .rodata                 const    0x000274ac     0x1c  sh_write.o [12]
  .rodata                 const    0x000274c8     0x1c  sh_write.o [12]
  .rodata                 const    0x000274e4     0x2c  sh_write.o [12]
  .rodata                 const    0x00027510     0x18  sh_write.o [12]
  .rodata                 const    0x00027528      0xc  sh_write.o [12]
  .rodata                 const    0x00027534     0x20  sh_write.o [12]
  .rodata                 const    0x00027554     0x20  sh_write.o [12]
  .rodata                 const    0x00027574     0x34  sh_write.o [12]
  .rodata                 const    0x000275a8     0x30  sh_write.o [12]
  .rodata                 const    0x000275d8     0x38  sh_write.o [12]
  .rodata                 const    0x00027610     0x28  sh_write.o [12]
  .rodata                 const    0x00027638     0x2c  sh_write.o [12]
  .rodata                 const    0x00027664     0x34  sh_write.o [12]
  .rodata                 const    0x00027698     0x20  sh_write.o [12]
  .rodata                 const    0x000276b8     0x18  nandflash_wl_init.o [6]
  .rodata                 const    0x000276d0     0x28  nandflash_wl.o [6]
  .rodata                 const    0x000276f8      0x4  dir_read.o [8]
  .rodata                 const    0x000276fc      0x4  dir_read.o [8]
  .rodata                 const    0x00027700      0x4  dir_read.o [8]
  .rodata                 const    0x00027704      0x4  dir_read.o [8]
  .rodata                 const    0x00027708      0x4  dir_read.o [8]
  .rodata                 const    0x0002770c      0x4  dir_read.o [8]
  .rodata                 const    0x00027710      0x4  dir_read.o [8]
  .rodata                 const    0x00027714      0x4  dir_read.o [8]
  .rodata                 const    0x00027718      0x4  dir_read.o [8]
  .rodata                 const    0x0002771c      0x4  dir_read.o [8]
  .rodata                 const    0x00027720      0x4  dir_read.o [8]
  .rodata                 const    0x00027724      0x4  dir_read.o [8]
  .rodata                 const    0x00027728      0x4  dir_read.o [8]
  .rodata                 const    0x0002772c     0x40  dir_read.o [8]
  .rodata                 const    0x0002776c     0x14  dir_read.o [8]
  .rodata                 const    0x00027780     0x10  dir_read.o [8]
  .rodata                 const    0x00027790      0xc  dir_read.o [8]
  .rodata                 const    0x0002779c      0xc  dir_read.o [8]
  .rodata                 const    0x000277a8      0x8  dir_read.o [8]
  .rodata                 const    0x000277b0      0x8  dir_read.o [8]
  .rodata                 const    0x000277b8     0x34  dir_read.o [8]
  .rodata                 const    0x000277ec      0xc  init_nandflash.o [3]
  .rodata                 const    0x000277f8     0x48  init_nandflash.o [3]
  .rodata                 const    0x00027840     0x1c  nfc_wl.o [6]
  .rodata                 const    0x0002785c      0x8  nfc_wl.o [6]
  .rodata                 const    0x00027864      0x8  nfc_wl.o [6]
  .rodata                 const    0x0002786c     0x5c  nfc_wl.o [6]
  .rodata                 const    0x000278c8     0x4c  nfc_wl.o [6]
  .rodata                 const    0x00027914     0x50  nfc_wl.o [6]
  .rodata                 const    0x00027964     0x14  nfc_wl.o [6]
  .rodata                 const    0x00027978     0x1c  nfc_wl.o [6]
  .rodata                 const    0x00027994     0x48  nfc_wl.o [6]
  .rodata                 const    0x000279dc     0x4c  nfc_wl.o [6]
  .rodata                 const    0x00027a28     0x50  nfc_wl.o [6]
  .rodata                 const    0x00027a78     0x5c  nfc_wl.o [6]
  .rodata                 const    0x00027ad4     0x14  nfc_wl.o [6]
  .rodata                 const    0x00027ae8     0x1c  nfc_wl.o [6]
  .rodata                 const    0x00027b04     0x18  mqx.o [9]
  .rodata                 const    0x00027b1c     0x10  mqx.o [9]
  .rodata                 const    0x00027b2c      0xc  mqx.o [9]
  .rodata                 const    0x00027b38      0x4  mqx.o [9]
  .rodata                 const    0x00027b3c      0x4  mqx.o [9]
  .rodata                 const    0x00027b40     0x14  mfs_create.o [8]
  .rodata                 const    0x00027b54     0x14  mfs_create.o [8]
  .rodata                 const    0x00027b68     0x14  mfs_format.o [8]
  .rodata                 const    0x00027b7c     0x14  mfs_format.o [8]
  .rodata                 const    0x00027b90     0x14  mfs_format.o [8]
  .rodata                 const    0x00027ba4     0x30  mfs_format.o [8]
  .rodata                 const    0x00027bd4      0xc  mfs_lfn.o [8]
  .rodata                 const    0x00027be0     0x2c  ddi_ldl_init.o [6]
  .rodata                 const    0x00027c0c     0x2c  ddi_ldl_init.o [6]
  .rodata                 const    0x00027c38     0x64  ddi_ldl_init.o [6]
  .rodata                 const    0x00027c9c     0x2c  media_buffer_manager_init.o [6]
  .rodata                 const    0x00027cc8     0x24  media_buffer_manager_init.o [6]
  .rodata                 const    0x00027cec     0x78  media_buffer_manager_init.o [6]
  .rodata                 const    0x00027d64     0x20  media_buffer_manager_init.o [6]
  .rodata                 const    0x00027d84     0x14  io_dopr.o [9]
  .rodata                 const    0x00027d98     0x14  io_dopr.o [9]
  .rodata                 const    0x00027dac      0x8  init_bsp.o [3]
  .rodata                 const    0x00027db4      0x8  init_bsp.o [3]
  .rodata                 const    0x00027dbc      0x8  init_bsp.o [3]
  .rodata                 const    0x00027dc4      0x8  init_bsp.o [3]
  .rodata                 const    0x00027dcc      0x8  init_bsp.o [3]
  .rodata                 const    0x00027dd4     0x1c  time_tables.o [9]
  .rodata                 const    0x00027df0     0x68  time_tables.o [9]
  .rodata                 const    0x00027e58    0x20c  time_tables.o [9]
  .rodata                 const    0x00028064     0x2c  ddi_ldl_iterator.o [6]
  .rodata                 const    0x00028090      0x8  ddi_ldl_iterator.o [6]
  .rodata                 const    0x00028098     0x68  ddi_ldl_iterator.o [6]
  .rodata                 const    0x00028100     0x2c  media_buffer_manager.o [6]
  .rodata                 const    0x0002812c      0xc  media_buffer_manager.o [6]
  .rodata                 const    0x00028138     0x70  media_buffer_manager.o [6]
  .rodata                 const    0x000281a8     0x20  media_buffer_manager.o [6]
  .rodata                 const    0x000281c8     0x28  media_buffer_manager.o [6]
  .rodata                 const    0x000281f0      0xc  media_buffer_manager.o [6]
  .rodata                 const    0x000281fc      0xc  media_buffer_manager.o [6]
  .rodata                 const    0x00028208      0xc  media_buffer_manager.o [6]
  .rodata                 const    0x00028214     0x10  media_buffer_manager.o [6]
  .rodata                 const    0x00028224     0x88  media_buffer_manager.o [6]
  .rodata                 const    0x000282ac     0x24  ddi_nand_media_init.o [6]
  .rodata                 const    0x000282d0     0x48  ddi_nand_media_init.o [6]
  .rodata                 const    0x00028318     0x2c  ddi_nand_media_init.o [6]
  .rodata                 const    0x00028344     0x10  ddi_nand_media_init.o [6]
  .rodata                 const    0x00028354     0x6c  ddi_nand_media_init.o [6]
  .rodata                 const    0x000283c0     0x10  ddi_nand_media_init.o [6]
  .rodata                 const    0x000283d0      0xc  ddi_nand_media_init.o [6]
  .rodata                 const    0x000283dc     0x10  ddi_nand_media_init.o [6]
  .rodata                 const    0x000283ec     0x10  ddi_nand_media_init.o [6]
  .rodata                 const    0x000283fc      0xc  timer.o [9]
  .rodata                 const    0x00028408     0x1c  init_gpio.o [3]
  .rodata                 const    0x00028424     0x1c  init_gpio.o [3]
  .rodata                 const    0x00028440      0x4  init_gpio.o [3]
  .rodata                 const    0x00028444     0x1c  init_gpio.o [3]
  .rodata                 const    0x00028460      0x4  init_gpio.o [3]
  .rodata                 const    0x00028464     0x1c  init_gpio.o [3]
  .rodata                 const    0x00028480      0x4  init_gpio.o [3]
  .rodata                 const    0x00028484     0x10  init_adc.o [3]
  .rodata                 const    0x00028494     0x18  init_adc.o [3]
  .rodata                 const    0x000284ac      0xc  init_esdhc.o [3]
  .rodata                 const    0x000284b8     0x14  init_i2c.o [3]
  .rodata                 const    0x000284cc     0x1c  bsp_cm.o [3]
  .rodata                 const    0x000284e8     0x78  bsp_cm.o [3]
  .rodata                 const    0x00028560      0x8  init_sai.o [3]
  .rodata                 const    0x00028568     0x1c  init_sai.o [3]
  .rodata                 const    0x00028584     0x20  init_sci.o [3]
  .rodata                 const    0x000285a4      0xc  i2c_pol_ki2c.o [3]
  .rodata                 const    0x000285b0    0x100  i2c_pol_ki2c.o [3]
  .rodata                 const    0x000286b0     0x18  krtc.o [3]
  .rodata                 const    0x000286c8     0x18  hwtimer_systick.o [3]
  .rodata                 const    0x000286e0     0x2c  simple_mutex.o [6]
  .rodata                 const    0x0002870c     0x64  simple_mutex.o [6]
  .rodata                 const    0x00028770     0x2c  nonsequential_sectors_map.o [6]
  .rodata                 const    0x0002879c     0x28  nonsequential_sectors_map.o [6]
  .rodata                 const    0x000287c4      0xc  nonsequential_sectors_map.o [6]
  .rodata                 const    0x000287d0     0x2c  nonsequential_sectors_map.o [6]
  .rodata                 const    0x000287fc     0x10  nonsequential_sectors_map.o [6]
  .rodata                 const    0x0002880c     0x78  nonsequential_sectors_map.o [6]
  .rodata                 const    0x00028884     0x2c  nonsequential_sectors_map.o [6]
  .rodata                 const    0x000288b0     0x3c  nonsequential_sectors_map.o [6]
  .rodata                 const    0x000288ec     0x2c  nonsequential_sectors_map.o [6]
  .rodata                 const    0x00028918     0x2c  nonsequential_sectors_map.o [6]
  .rodata                 const    0x00028944     0x18  nonsequential_sectors_map.o [6]
  .rodata                 const    0x0002895c     0x2c  nonsequential_sectors_map.o [6]
  .rodata                 const    0x00028988     0x10  nonsequential_sectors_map.o [6]
  .rodata                 const    0x00028998     0x2c  nonsequential_sectors_map.o [6]
  .rodata                 const    0x000289c4     0x2c  nonsequential_sectors_map.o [6]
  .rodata                 const    0x000289f0     0x24  nonsequential_sectors_map.o [6]
  .rodata                 const    0x00028a14     0x30  nonsequential_sectors_map.o [6]
  .rodata                 const    0x00028a44     0x30  nonsequential_sectors_map.o [6]
  .rodata                 const    0x00028a74     0x44  nonsequential_sectors_map.o [6]
  .rodata                 const    0x00028ab8     0x10  nonsequential_sectors_map.o [6]
  .rodata                 const    0x00028ac8     0x2c  bad_block_table.o [6]
  .rodata                 const    0x00028af4      0xc  bad_block_table.o [6]
  .rodata                 const    0x00028b00     0x68  bad_block_table.o [6]
  .rodata                 const    0x00028b68     0x18  bad_block_table.o [6]
  .rodata                 const    0x00028b80     0x10  deferred_task_queue.o [6]
  .rodata                 const    0x00028b90     0x2c  deferred_task_queue.o [6]
  .rodata                 const    0x00028bbc      0x8  deferred_task_queue.o [6]
  .rodata                 const    0x00028bc4     0x6c  deferred_task_queue.o [6]
  .rodata                 const    0x00028c30     0x1c  deferred_task_queue.o [6]
  .rodata                 const    0x00028c4c     0x2c  ddi_nand_media_allocate.o [6]
  .rodata                 const    0x00028c78      0xc  ddi_nand_media_allocate.o [6]
  .rodata                 const    0x00028c84     0x70  ddi_nand_media_allocate.o [6]
  .rodata                 const    0x00028cf4     0x2c  ddi_nand_media_allocate.o [6]
  .rodata                 const    0x00028d20     0x44  ddi_nand_media_allocate.o [6]
  .rodata                 const    0x00028d64     0x2c  mapper.o [6]
  .rodata                 const    0x00028d90     0x1c  mapper.o [6]
  .rodata                 const    0x00028dac     0x60  mapper.o [6]
  .rodata                 const    0x00028e0c      0x8  mapper.o [6]
  .rodata                 const    0x00028e14     0x20  mapper.o [6]
  .rodata                 const    0x00028e34     0x68  mapper.o [6]
  .rodata                 const    0x00028e9c      0xc  mapper.o [6]
  .rodata                 const    0x00028ea8     0x30  mapper.o [6]
  .rodata                 const    0x00028ed8     0x14  mapper.o [6]
  .rodata                 const    0x00028eec     0x2c  ddi_nand_hal_common.o [6]
  .rodata                 const    0x00028f18     0x64  ddi_nand_hal_common.o [6]
  .rodata                 const    0x00028f7c     0x14  ddi_nand_hal_common.o [6]
  .rodata                 const    0x00028f90     0x24  ddi_nand_media_discover.o [6]
  .rodata                 const    0x00028fb4     0x24  ddi_nand_media_discover.o [6]
  .rodata                 const    0x00028fd8     0x2c  ddi_nand_media_discover.o [6]
  .rodata                 const    0x00029004     0x70  ddi_nand_media_discover.o [6]
  .rodata                 const    0x00029074      0xc  ddi_nand_media_discover.o [6]
  .rodata                 const    0x00029080     0x58  ddi_nand_media_discover.o [6]
  .rodata                 const    0x000290d8     0x20  adc_kadc.o [3]
  .rodata                 const    0x000290f8     0x40  edma_kinetisf.o [3]
  .rodata                 const    0x00029138      0x4  edma_kinetisf.o [3]
  .rodata                 const    0x0002913c     0x2c  double_list.o [6]
  .rodata                 const    0x00029168      0x8  double_list.o [6]
  .rodata                 const    0x00029170     0x60  double_list.o [6]
  .rodata                 const    0x000291d0     0x14  red_black_tree.o [6]
  .rodata                 const    0x000291e4     0x14  red_black_tree.o [6]
  .rodata                 const    0x000291f8     0x10  red_black_tree.o [6]
  .rodata                 const    0x00029208     0x2c  red_black_tree.o [6]
  .rodata                 const    0x00029234      0xc  red_black_tree.o [6]
  .rodata                 const    0x00029240     0x64  red_black_tree.o [6]
  .rodata                 const    0x000292a4     0x14  red_black_tree.o [6]
  .rodata                 const    0x000292b8     0x18  red_black_tree.o [6]
  .rodata                 const    0x000292d0     0x10  wlru.o [6]
  .rodata                 const    0x000292e0     0x28  deferred_task.o [6]
  .rodata                 const    0x00029308     0x2c  page_order_map.o [6]
  .rodata                 const    0x00029334     0x24  page_order_map.o [6]
  .rodata                 const    0x00029358     0x68  page_order_map.o [6]
  .rodata                 const    0x000293c0     0x14  page_order_map.o [6]
  .rodata                 const    0x000293d4      0xc  page_order_map.o [6]
  .rodata                 const    0x000293e0     0x1c  page_order_map.o [6]
  .rodata                 const    0x000293fc     0x24  ddi_page.o [6]
  .rodata                 const    0x00029420     0x2c  ddi_page.o [6]
  .rodata                 const    0x0002944c     0x1c  ddi_page.o [6]
  .rodata                 const    0x00029468     0x60  ddi_page.o [6]
  .rodata                 const    0x000294c8     0x18  ddi_page.o [6]
  .rodata                 const    0x000294e0     0x2c  ddi_block.o [6]
  .rodata                 const    0x0002950c      0x8  ddi_block.o [6]
  .rodata                 const    0x00029514     0x64  ddi_block.o [6]
  .rodata                 const    0x00029578     0x2c  ddi_nand_mapper_get_info.o [6]
  .rodata                 const    0x000295a4     0x14  ddi_nand_mapper_get_info.o [6]
  .rodata                 const    0x000295b8     0x70  ddi_nand_mapper_get_info.o [6]
  .rodata                 const    0x00029628     0x10  ddi_nand_mapper_get_info.o [6]
  .rodata                 const    0x00029638     0x2c  phy_map.o [6]
  .rodata                 const    0x00029664      0xc  phy_map.o [6]
  .rodata                 const    0x00029670     0x60  phy_map.o [6]
  .rodata                 const    0x000296d0     0x20  phy_map.o [6]
  .rodata                 const    0x000296f0     0x10  phy_map.o [6]
  .rodata                 const    0x00029700     0x2c  ddi_metadata.o [6]
  .rodata                 const    0x0002972c      0xc  ddi_metadata.o [6]
  .rodata                 const    0x00029738     0x64  ddi_metadata.o [6]
  .rodata                 const    0x0002979c     0x18  zone_map_cache.o [6]
  .rodata                 const    0x000297b4     0x2c  zone_map_cache.o [6]
  .rodata                 const    0x000297e0     0x10  zone_map_cache.o [6]
  .rodata                 const    0x000297f0     0x68  zone_map_cache.o [6]
  .rodata                 const    0x00029858     0x10  zone_map_cache.o [6]
  .rodata                 const    0x00029868     0x14  zone_map_cache.o [6]
  .rodata                 const    0x0002987c     0x14  zone_map_cache.o [6]
  .rodata                 const    0x00029890     0x24  zone_map_cache.o [6]
  .rodata                 const    0x000298b4     0x24  zone_map_cache.o [6]
  .rodata                 const    0x000298d8     0x18  persistent_phy_map.o [6]
  .rodata                 const    0x000298f0     0x2c  persistent_phy_map.o [6]
  .rodata                 const    0x0002991c      0xc  persistent_phy_map.o [6]
  .rodata                 const    0x00029928     0x6c  persistent_phy_map.o [6]
  .rodata                 const    0x00029994     0x14  persistent_phy_map.o [6]
  .rodata                 const    0x000299a8     0x2c  ddi_nand_mapper_utilities.o [6]
  .rodata                 const    0x000299d4     0x38  ddi_nand_mapper_utilities.o [6]
  .rodata                 const    0x00029a0c     0x74  ddi_nand_mapper_utilities.o [6]
  .rodata                 const    0x00029a80     0x38  ddi_nand_mapper_utilities.o [6]
  .rodata                 const    0x00029ab8     0x38  ddi_nand_mapper_utilities.o [6]
  .rodata                 const    0x00029af0     0x54  ddi_nand_hal_nfcphymedia.o [6]
  .rodata                 const    0x00029b44     0x2c  ddi_nand_hal_nfcphymedia.o [6]
  .rodata                 const    0x00029b70      0xc  ddi_nand_hal_nfcphymedia.o [6]
  .rodata                 const    0x00029b7c     0x6c  ddi_nand_hal_nfcphymedia.o [6]
  .rodata                 const    0x00029be8     0x38  ddi_nand_data_drive_init.o [6]
  .rodata                 const    0x00029c20     0x2c  ddi_nand_data_drive_init.o [6]
  .rodata                 const    0x00029c4c      0xc  ddi_nand_data_drive_init.o [6]
  .rodata                 const    0x00029c58     0x74  ddi_nand_data_drive_init.o [6]
  .rodata                 const    0x00029ccc     0x10  adc_mk60.o [3]
  .rodata                 const    0x00029cdc     0x2c  ddi_nand_mapper_zone_map_cache_lookup.o [6]
  .rodata                 const    0x00029d08     0x58  ddi_nand_mapper_zone_map_cache_lookup.o [6]
  .rodata                 const    0x00029d60     0x80  ddi_nand_mapper_zone_map_cache_lookup.o [6]
  .rodata                 const    0x00029de0     0x18  persistent_map.o [6]
  .rodata                 const    0x00029df8     0x2c  persistent_map.o [6]
  .rodata                 const    0x00029e24     0x18  persistent_map.o [6]
  .rodata                 const    0x00029e3c     0x68  persistent_map.o [6]
  .rodata                 const    0x00029ea4     0x44  persistent_map.o [6]
  .rodata                 const    0x00029ee8      0x8  persistent_map.o [6]
  .rodata                 const    0x00029ef0     0x24  zone_map_section_page.o [6]
  .rodata                 const    0x00029f14     0x2c  zone_map_section_page.o [6]
  .rodata                 const    0x00029f40      0xc  zone_map_section_page.o [6]
  .rodata                 const    0x00029f4c     0x70  zone_map_section_page.o [6]
  .rodata                 const    0x00029fbc      0xc  zone_map_section_page.o [6]
  .rodata                 const    0x00029fc8     0x10  zone_map_section_page.o [6]
  .rodata                 const    0x00029fd8     0x18  zone_map_section_page.o [6]
  .rodata                 const    0x00029ff0     0x1c  zone_map_section_page.o [6]
  .rodata                 const    0x0002a00c     0x18  zone_map_section_page.o [6]
  .rodata                 const    0x0002a024     0x14  zone_map_section_page.o [6]
  .rodata                 const    0x0002a038     0x2c  ddi_nand_data_drive_read_sector.o [6]
  .rodata                 const    0x0002a064     0x58  ddi_nand_data_drive_read_sector.o [6]
  .rodata                 const    0x0002a0bc     0x7c  ddi_nand_data_drive_read_sector.o [6]
  .rodata                 const    0x0002a138      0x8  ddi_nand_data_drive_read_sector.o [6]
  .rodata                 const    0x0002a140     0x2c  ddi_nand_ndd_write_sector.o [6]
  .rodata                 const    0x0002a16c     0x30  ddi_nand_ndd_write_sector.o [6]
  .rodata                 const    0x0002a19c     0x78  ddi_nand_ndd_write_sector.o [6]
  .rodata                 const    0x0002a214     0x18  ddi_nand_ndd_write_sector.o [6]
  .rodata                 const    0x0002a22c     0x2c  ddi_nand_data_drive_erase.o [6]
  .rodata                 const    0x0002a258      0xc  ddi_nand_data_drive_erase.o [6]
  .rodata                 const    0x0002a264     0x78  ddi_nand_data_drive_erase.o [6]
  .rodata                 const    0x0002a2dc      0x8  mqx_init.o [3]
  .rodata                 const    0x0002a2e4     0x30  mqx_init.o [3]
  .rodata                 const    0x0002a314      0x2  demo.o [1]
  .rodata                 const    0x0002a316      0x1  unwind_debug.o [11]
  .rodata                 const    0x0002a317      0x0  zero_init3.o [10]
  .rodata                 const    0x0002a317      0x0  packbits_init3.o [10]
  Initializer bytes       ro data  0x0002a317    0x127  <for USER_DEFAULT_MEMORY-1>
  Initializer bytes       ro data  0x0002a43e      0x2  <for KERNEL_DATA-1>
  FLASHX_POOL                      0x0002b000      0x1  <Block>
    .flashx               const    0x0002b000      0x1  vectors.o [3]
    .flashx               const    0x0002b001      0x0  vectors.o [3]
                                 - 0x0002b001  0x2abe1

"P2":                                            0xa64
  USER_MEMORY                      0x1fff0000    0xa5a  <Block>
    USER_DEFAULT_MEMORY            0x1fff0000    0xa5a  <Block>
      USER_DEFAULT_MEMORY-1
                                   0x1fff0000    0x2b4  <Init block>
        .data             inited   0x1fff0000     0x40  demo.o [1]
        .data             inited   0x1fff0040      0x4  demo.o [1]
        .data             inited   0x1fff0044      0x4  mfs_init.o [8]
        .data             inited   0x1fff0048      0x4  mfs_init.o [8]
        .data             inited   0x1fff004c      0x8  nfc_wl.o [6]
        .data             inited   0x1fff0054      0x4  mqx.o [9]
        .data             inited   0x1fff0058     0xd0  mfs_format.o [8]
        .data             inited   0x1fff0128     0x14  MT29F2G16.o [3]
        .data             inited   0x1fff013c      0x8  init_sai.o [3]
        .data             inited   0x1fff0144     0x1c  init_sai.o [3]
        .data             inited   0x1fff0160      0x4  edma.o [3]
        .data             inited   0x1fff0164      0x8  edma.o [3]
        .data             inited   0x1fff016c    0x144  ddi_nand_media_definition.o [6]
        .data             inited   0x1fff02b0      0x4  adt_kpdb.o [3]
      .bss                zero     0x1fff02b8     0x40  init_bsp.o [3]
      .bss                zero     0x1fff02f8    0x418  media_buffer_manager.o [6]
      .bss                zero     0x1fff0710      0x4  demo.o [1]
      .bss                zero     0x1fff0714      0x4  demo.o [1]
      .bss                zero     0x1fff0718      0x4  demo.o [1]
      .bss                zero     0x1fff071c      0x4  mfs_init.o [8]
      .bss                zero     0x1fff0720      0x4  mfs_init.o [8]
      .bss                zero     0x1fff0724      0x4  nandflash_wl.o [6]
      .bss                zero     0x1fff0728     0x30  io_util.o [9]
      .bss                zero     0x1fff0758      0x4  nfc_wl.o [6]
      .bss                zero     0x1fff075c      0x4  nfc_wl.o [6]
      .bss                zero     0x1fff0760      0x4  nfc_wl.o [6]
      .bss                zero     0x1fff0764      0x4  mqx.o [9]
      .bss                zero     0x1fff0768      0x4  ddi_ldl_init.o [6]
      .bss                zero     0x1fff076c     0x30  ddi_ldl_init.o [6]
      .bss                zero     0x1fff079c      0x4  nfc.o [3]
      .bss                zero     0x1fff07a0      0x4  nfc.o [3]
      .bss                zero     0x1fff07a4      0x4  init_bsp.o [3]
      .bss                zero     0x1fff07a8      0x4  psp_mstiq.o [9]
      .bss                zero     0x1fff07ac      0x4  psp_mstiq.o [9]
      .bss                zero     0x1fff07b0      0x4  ddi_nand_media_init.o [6]
      .bss                zero     0x1fff07b4     0x68  ddi_nand_hal_globals.o [6]
      .bss                zero     0x1fff081c      0x4  ddi_nand_hal_globals.o [6]
      .bss                zero     0x1fff0820      0x4  krtc.o [3]
      .bss                zero     0x1fff0824      0x4  krtc.o [3]
      .bss                zero     0x1fff0828      0x4  krtc.o [3]
      .bss                zero     0x1fff082c      0x4  krtc.o [3]
      .bss                zero     0x1fff0830      0x4  krtc.o [3]
      .bss                zero     0x1fff0834    0x180  edma.o [3]
      .bss                zero     0x1fff09b4     0x14  simple_mutex.o [6]
      .bss                zero     0x1fff09c8     0x30  ddi_nand_media_definition.o [6]
      .bss                zero     0x1fff09f8     0x24  adc_kadc.o [3]
      .bss                zero     0x1fff0a1c      0x4  adc_kadc.o [3]
      .bss                zero     0x1fff0a20     0x34  adt_kpdb.o [3]
      .bss                zero     0x1fff0a54      0x4  new.o [5]
      .bss                zero     0x1fff0a58      0x1  bsp_cm.o [3]
      .bss                zero     0x1fff0a59      0x1  simple_mutex.o [6]
  KERNEL_DATA                      0x1fff0a60      0x4  <Block>
    KERNEL_DATA-1                  0x1fff0a60      0x4  <Init block>
      .kernel_data        inited   0x1fff0a60      0x4  kernel_symbols.o [9]
                                 - 0x1fff0a64    0xa64


*******************************************************************************
*** INIT TABLE
***

          Address     Size
          -------     ----
Zero (__iar_zero_init3)
    1 destination range, total size 0x7a2:
          0x1fff02b8  0x7a2

Copy/packbits (__iar_packbits_init3)
    1 source range, total size 0x127 (42% of destination):
          0x0002a317  0x127
    1 destination range, total size 0x2b4:
          0x1fff0000  0x2b4

Copy/packbits (__iar_packbits_init3)
    1 source range, total size 0x2 (50% of destination):
          0x0002a43e    0x2
    1 destination range, total size 0x4:
          0x1fff0a60    0x4



*******************************************************************************
*** MODULE SUMMARY
***

    Module                                   ro code  ro data  rw data
    ------                                   -------  -------  -------
D:\Ganglu\Documents\GitHub\K60F120M\ffs\examples\mfs_nandflash\iar\mfs_nandflash_K60F120M\K60F120M\Int Flash Debug\Obj: [1]
    demo.o                                     1 388    1 650       80
    ------------------------------------------------------------------
    Total:                                     1 388    1 650       80

command line: [2]
    ------------------------------------------------------------------
    Total:

bsp.a: [3]
    MT29F2G16.o                                             8       20
    adc.o                                      1 540
    adc_kadc.o                                 2 964       32       40
    adc_mk60.o                                    24       16
    adt_kpdb.o                                 2 996        2       56
    bsp_cm.o                                   2 572      148        1
    edma.o                                       520        5      396
    edma_kinetisf.o                              104       68
    esdhc.o                                    3 472
    esdhc_mk60.o                                  24
    hwtimer.o                                    410
    hwtimer_kinetis.o                              4
    hwtimer_systick.o                            344       24
    i2c_int.o                                    482
    i2c_int_ki2c.o                             1 812
    i2c_mk60.o                                    72
    i2c_pol.o                                    474
    i2c_pol_ki2c.o                             2 392      268
    init_adc.o                                             40
    init_bsp.o                                   520       40       68
    init_esdhc.o                                           12
    init_gpio.o                                1 656      124
    init_hw.o                                    356
    init_i2c.o                                             20
    init_nandflash.o                                       84
    init_sai.o                                             52       36
    init_sci.o                                             32
    io_sinit.o                                    56
    krtc.o                                       928       24       20
    mqx_init.o                                             56
    mqx_main.o                                    16
    nfc.o                                      2 746                 8
    nfc_k60f120m.o                                16
    sai_int.o                                    634
    sai_int_ksai.o                             6 904
    sai_mk60.o                                   104
    serl_int.o                                 1 982
    serl_int_kuart.o                             584
    serl_mk60.o                                   92
    serl_pol_kuart.o                           1 344
    vectors.o                                           1 041
    ------------------------------------------------------------------
    Total:                                    38 144    2 096      645

dl7M_tln.a: [4]
    abort.o                                        6
    exit.o                                         4
    strcat.o                                      28
    strncmp.o                                     42
    xpurevirtual.o                                 4
    ------------------------------------------------------------------
    Total:                                        84

dlpp7M_tl_nc.a: [5]
    cxxabi.o                                     184
    delaop_0.o                                     4
    delop_0.o                                     10
    new.o                                                            4
    newaop_0.o                                     8
    newop_0.o                                     36
    nomemory.o                                     4
    ------------------------------------------------------------------
    Total:                                       246                 4

ffs.a: [6]
    bad_block_table.o                            244      184
    ddi_block.o                                  582      152
    ddi_ldl_drive_get_info.o                     260
    ddi_ldl_init.o                               626      188       52
    ddi_ldl_iterator.o                           140      156
    ddi_ldl_read.o                                58
    ddi_ldl_util.o                               512
    ddi_ldl_write.o                              626
    ddi_metadata.o                               716      156
    ddi_nand_data_drive_erase.o                1 960      176
    ddi_nand_data_drive_get_info.o               132
    ddi_nand_data_drive_init.o                   592      228
    ddi_nand_data_drive_read_sector.o            950      264
    ddi_nand_data_drive_set_info.o                38
    ddi_nand_hal_common.o                        262      164
    ddi_nand_hal_globals.o                                         108
    ddi_nand_hal_init.o                          164
    ddi_nand_hal_nfcphymedia.o                   904      248
    ddi_nand_mapper_get_info.o                   374      192
    ddi_nand_mapper_utilities.o                1 450      328
    ddi_nand_mapper_zone_map_cache_lookup.o      410      260
    ddi_nand_media_allocate.o                    200      280
    ddi_nand_media_definition.o                           138      372
    ddi_nand_media_discover.o                    620      328
    ddi_nand_media_get_info.o                    304        8
    ddi_nand_media_init.o                        644      336        4
    ddi_nand_media_regions.o                     136
    ddi_nand_media_shutdown.o                    324
    ddi_nand_ndd_flush.o                         104
    ddi_nand_ndd_write_sector.o                  812      236
    ddi_nand_nssm_get_entry.o                    236
    ddi_page.o                                   932      228
    deferred_task.o                              416       40
    deferred_task_queue.o                        712      204
    double_list.o                                294      148
    errcode.o                                    108
    mapper.o                                   4 242      392
    media_buffer_manager.o                     2 516      428    1 048
    media_buffer_manager_init.o                  308      232
    nandflash_wl.o                             2 768       40        4
    nandflash_wl_init.o                                    24
    nfc_wl.o                                   3 016      711       20
    nonsequential_sectors_map.o                5 824      856
    page_order_map.o                             592      244
    persistent_map.o                           2 678      272
    persistent_phy_map.o                         722      208
    phy_map.o                                    562      200
    red_black_tree.o                           1 482      256
    simple_mutex.o                               230      144       21
    simple_timer.o                                24
    wl_common.o                                   34
    wlru.o                                       288       16
    zone_map_cache.o                           1 668      316
    zone_map_section_page.o                      674      328
    ------------------------------------------------------------------
    Total:                                    44 470    9 309    1 629

m7M_tlv.a: [7]
    DblAdd.o                                     232
    DblCmpEq.o                                    32
    DblCmpGe.o                                    46
    DblCmpLe.o                                    46
    DblDiv.o                                     582
    DblMul.o                                     418
    DblSub.o                                     364
    DblToI32.o                                    76
    fpinit_M.o                                    26
    modf.o                                       192
    ------------------------------------------------------------------
    Total:                                     2 014

mfs.a: [8]
    dir_read.o                                 1 008      244
    mfs_attribute.o                              272
    mfs_cluster.o                              1 096
    mfs_create.o                               1 252       40
    mfs_data_sector.o                            174
    mfs_delete.o                                 258
    mfs_dir_entry.o                            2 066
    mfs_directory.o                            2 214
    mfs_fat.o                                  1 042
    mfs_format.o                               2 022      197      208
    mfs_handle.o                                 146
    mfs_init.o                                 4 944        4       16
    mfs_lfn.o                                  2 242       12
    mfs_misc.o                                 1 128      912
    mfs_open.o                                   992
    mfs_parse.o                                1 398
    mfs_read.o                                   848
    mfs_rename.o                                 708
    mfs_rw.o                                   1 044
    mfs_search.o                               2 034
    mfs_time.o                                   242
    mfs_valdev.o                                 172
    mfs_write.o                                1 416
    ------------------------------------------------------------------
    Total:                                    28 718    1 409      224

psp.a: [9]
    boot.o                                       100
    cache.o                                       44
    comp.o                                        34
    dispatch.o                                   704
    idletask.o                                    76
    int.o                                        576
    int_inst.o                                    20
    int_vtab.o                                    20
    io_dopr.o                                  3 936       40
    io_fclos.o                                    54
    io_ferr.o                                     16
    io_fflsh.o                                    58
    io_fgetc.o                                    80
    io_fgetl.o                                   162
    io_fgets.o                                    52
    io_fopen.o                                   200
    io_fp.o                                    2 378
    io_fputc.o                                    68
    io_fseek.o                                   192
    io_fung.o                                     48
    io_ghand.o                                    80
    io_init.o                                     36
    io_inst.o                                     58
    io_instx.o                                   256
    io_ioctl.o                                    90
    io_pntf.o                                     44
    io_read.o                                    134
    io_spr.o                                     102
    io_uinst.o                                   140
    io_util.o                                  1 220                48
    io_write.o                                    50
    kernel_symbols.o                                        2        4
    kinetis_mpu.o                                 20
    lwevent.o                                    260
    lwmem.o                                    1 668
    lwsem.o                                      756
    mqx.o                                        784       62        8
    mutex.o                                    1 128
    nvic.o                                       196
    partition.o                                1 296
    psp_iinit.o                                   28
    psp_mat1.o                                   242
    psp_mat2.o                                   244
    psp_mat3.o                                    76
    psp_msti.o                                   132
    psp_mstiq.o                                  136                 8
    psp_seti.o                                    32
    psp_tiad.o                                    84
    psp_tinm.o                                    56
    psp_tiol.o                                    38
    psp_tise.o                                    92
    psp_tisu.o                                    72
    psp_tius.o                                   178
    psp_tkti.o                                   164
    queue.o                                      426
    sc_irdyq.o                                   216
    sched.o                                      372
    stack_bu.o                                   198
    stack_de.o                                     2
    strnlen.o                                     28
    support.o                                     40
    task.o                                     2 146
    taskq.o                                      524
    time.o                                     1 700
    time_tables.o                                         656
    timer.o                                    2 100       12
    ------------------------------------------------------------------
    Total:                                    26 462      772       68

rt7M_tl.a: [10]
    ABImemcpy.o                                  118
    ABImemset.o                                  102
    I64DivMod.o                                  306
    I64DivZer.o                                    2
    I64Shl.o                                      34
    cexit.o                                       10
    cmain.o                                       22
    cstartup_M.o                                  12
    data_init3.o                                  40
    memcmp.o                                      98
    packbits_init3.o                             166
    strcmp.o                                      66
    strcpy.o                                      68
    strlen.o                                      54
    strncpy.o                                    108
    zero_init3.o                                  34
    ------------------------------------------------------------------
    Total:                                     1 240

shb_l.a: [11]
    exit.o                                        20
    unwind_debug.o                                          1
    ------------------------------------------------------------------
    Total:                                        20        1

shell.a: [12]
    sh_cd.o                                      340      240
    sh_cmdlist.o                                 160       20
    sh_copy.o                                    528      380
    sh_create.o                                  292      280
    sh_del.o                                     288      208
    sh_di.o                                    1 208    1 228
    sh_dir.o                                     356      312
    sh_disect.o                                  464      324
    sh_exit.o                                    104       12
    sh_format.o                                  400      408
    sh_help.o                                    280      168
    sh_mkdir.o                                   268      240
    sh_pwd.o                                     156      100
    sh_read.o                                    584      576
    sh_rename.o                                  400      328
    sh_rmdir.o                                   300      260
    sh_sh.o                                      228      152
    sh_type.o                                    312      244
    sh_util.o                                    640       16
    sh_write.o                                   728      636
    shell.o                                      572      176
    ------------------------------------------------------------------
    Total:                                     8 608    6 308

    Gaps                                          94                 4
    Linker created                                         76
----------------------------------------------------------------------
    Grand Total:                             151 488   21 621    2 654


*******************************************************************************
*** ENTRY LIST
***

Entry                      Address   Size  Type      Object
-----                      -------   ----  ----      ------
?main                   0x000004e1         Code  Gb  cmain.o [10]
AutoClearFlag::AutoClearFlag(bool &)
                        0x0001c183    0x4  Code  Gb  persistent_phy_map.o [6]
AutoClearFlag::~AutoClearFlag()
                        0x0001c187    0x8  Code  Gb  persistent_phy_map.o [6]
AuxiliaryBuffer::AuxiliaryBuffer()
                        0x0001b983    0xe  Code  Gb  ddi_nand_data_drive_erase.o [6]
AuxiliaryBuffer::acquire()
                        0x0001b991   0x10  Code  Gb  ddi_nand_data_drive_erase.o [6]
AuxiliaryBuffer::~AuxiliaryBuffer()
                        0x0001b9a1    0xe  Code  Gb  ddi_nand_data_drive_erase.o [6]
BAUDRATE_ICR            0x000285b0  0x100  Data  Lc  i2c_pol_ki2c.o [3]
BAUDRATE_MULT           0x000285a4    0xc  Data  Lc  i2c_pol_ki2c.o [3]
BYTE_SIZES              0x00026c14   0x14  Data  Lc  sh_format.o [12]
CFMPROTROM$$Base        0x00000400          --   Gb  - Linker created -
CFMPROTROM$$Limit       0x00000414          --   Gb  - Linker created -
ClockConfigurationID    0x1fff0a58    0x1  Data  Lc  bsp_cm.o [3]
Cpu_GetClockConfiguration
                        0x000016cf    0x8  Code  Gb  bsp_cm.o [3]
Cpu_GetCurrentMCGMode   0x0000153b   0x46  Code  Lc  bsp_cm.o [3]
Cpu_MCGAutoTrim         0x0000105f   0x6e  Code  Gb  bsp_cm.o [3]
Cpu_SetClockConfiguration
                        0x00001581  0x14e  Code  Gb  bsp_cm.o [3]
Cpu_SetMCG              0x000014b7   0x84  Code  Lc  bsp_cm.o [3]
Cpu_SetMCGModeBLPI      0x0000134b   0x46  Code  Lc  bsp_cm.o [3]
Cpu_SetMCGModeFBE       0x00001225  0x126  Code  Lc  bsp_cm.o [3]
Cpu_SetMCGModeFBI       0x00001391  0x126  Code  Lc  bsp_cm.o [3]
Cpu_SetMCGModePBE       0x0000113f   0xe6  Code  Lc  bsp_cm.o [3]
Cpu_SetMCGModePEE       0x000010cd   0x72  Code  Lc  bsp_cm.o [3]
DdiNandLocker::DdiNandLocker()
                        0x0002223d   0x14  Code  Gb  ddi_nand_data_drive_set_info.o [6]
DdiNandLocker::~DdiNandLocker()
                        0x00022401    0xe  Code  Gb  ddi_nand_data_drive_set_info.o [6]
DoubleList::DoubleList()
                        0x0001a6e1    0xe  Code  Gb  double_list.o [6]
DoubleList::DoubleList() [subobject]
                        0x0001a6c9    0xc  Code  Gb  double_list.o [6]
DoubleList::Iterator::Iterator(DoubleList::Node *)
                        0x0001e5a3    0x4  Code  Gb  deferred_task.o [6]
DoubleList::Iterator::Iterator(DoubleList::Node *) [subobject]
                        0x0001e355    0xc  Code  Gb  deferred_task.o [6]
DoubleList::Iterator::operator !=(const DoubleList::Iterator&)
                        0x0001a7f7   0x1a  Code  Gb  deferred_task.o [6]
DoubleList::Iterator::operator ++()
                        0x0001a821   0x14  Code  Gb  deferred_task.o [6]
DoubleList::Iterator::operator ==(const DoubleList::Iterator&)
                        0x0001d1d3   0x12  Code  Gb  deferred_task.o [6]
DoubleList::Iterator::operator DoubleList::Node *()
                        0x0001a835    0x4  Code  Gb  deferred_task_queue.o [6]
DoubleList::Node::Node()
                        0x0001a6ef    0xa  Code  Gb  double_list.o [6]
DoubleList::Node::Node() [subobject]
                        0x0001a6d5    0xc  Code  Gb  double_list.o [6]
DoubleList::Node::getNext()
                        0x0001d1e5    0x4  Code  Gb  deferred_task.o [6]
DoubleList::Node::getPrevious()
                        0x0001d187    0x4  Code  Gb  wlru.o [6]
DoubleList::clear()     0x0001a7c9    0xe  Code  Gb  double_list.o [6]
DoubleList::getHead()   0x0001e101    0x4  Code  Gb  wlru.o [6]
DoubleList::getTail()   0x0001e0fd    0x4  Code  Gb  wlru.o [6]
DoubleList::insertAfter(DoubleList::Node *, DoubleList::Node *)
                        0x0001a6f9   0x5e  Code  Gb  double_list.o [6]
DoubleList::insertBack(DoubleList::Node *)
                        0x0001d18b   0x18  Code  Gb  double_list.o [6]
DoubleList::insertBefore(DoubleList::Node *, DoubleList::Node *)
                        0x0001a765   0x28  Code  Gb  double_list.o [6]
DoubleList::isEmpty() const
                        0x0001d177   0x10  Code  Gb  deferred_task_queue.o [6]
DoubleList::remove(DoubleList::Node *)
                        0x0001a78d   0x3c  Code  Gb  double_list.o [6]
DoubleListT<nand::DeferredTask>::DoubleListT()
                        0x0001a69b    0xe  Code  Gb  deferred_task_queue.o [6]
DoubleListT<nand::DeferredTask>::Iterator::Iterator(nand::DeferredTask *)
                        0x0001e205   0x1a  Code  Gb  deferred_task.o [6]
DoubleListT<nand::DeferredTask>::Iterator::operator *()
                        0x0001e1e1   0x10  Code  Gb  deferred_task.o [6]
DoubleListT<nand::DeferredTask>::Iterator::operator ->()
                        0x0001a811   0x10  Code  Gb  deferred_task_queue.o [6]
DoubleListT<nand::DeferredTask>::getBegin()
                        0x0001d1a3   0x18  Code  Gb  deferred_task.o [6]
DoubleListT<nand::DeferredTask>::getEnd()
                        0x0001d1bb   0x18  Code  Gb  deferred_task.o [6]
DoubleListT<nand::DeferredTask>::getHead()
                        0x0001a6b7   0x10  Code  Gb  deferred_task_queue.o [6]
DriveAdd(LogicalDrive *)
                        0x00013113   0x40  Code  Gb  ddi_ldl_init.o [6]
DriveCreateIterator     0x00016d35   0x20  Code  Gb  ddi_ldl_iterator.o [6]
DriveErase              0x00013495   0x34  Code  Gb  ddi_ldl_write.o [6]
DriveFindEmptyEntry()   0x00013699   0x38  Code  Gb  ddi_ldl_util.o [6]
DriveFlush              0x00013463   0x32  Code  Gb  ddi_ldl_write.o [6]
DriveGetDriveFromTag(unsigned char)
                        0x0001365d   0x3c  Code  Gb  ddi_ldl_util.o [6]
DriveGetInfo            0x000138ff   0x3a  Code  Gb  ddi_ldl_drive_get_info.o [6]
DriveInit               0x000130d9   0x3a  Code  Gb  ddi_ldl_init.o [6]
DriveIteratorDispose    0x00016dad   0x10  Code  Gb  ddi_ldl_iterator.o [6]
DriveIteratorNext       0x00016d55   0x48  Code  Gb  ddi_ldl_iterator.o [6]
DriveReadSector         0x00013607   0x3a  Code  Gb  ddi_ldl_read.o [6]
DriveRemove(unsigned char)
                        0x00013153   0x76  Code  Gb  ddi_ldl_init.o [6]
DriveRepair             0x0001356d   0x9a  Code  Gb  ddi_ldl_write.o [6]
DriveShutdown           0x00013529   0x44  Code  Gb  ddi_ldl_write.o [6]
DriveWriteSector        0x00013429   0x3a  Code  Gb  ddi_ldl_write.o [6]
FLASHX_POOL$$Base       0x0002b000          --   Gb  - Linker created -
FLASHX_POOL$$Limit      0x0002b001          --   Gb  - Linker created -
KERNEL_DATA$$Base       0x1fff0a60          --   Gb  - Linker created -
KERNEL_DATA$$Limit      0x1fff0a64          --   Gb  - Linker created -
LDD_SetClockConfiguration
                        0x0000105d    0x2  Code  Gb  bsp_cm.o [3]
LogicalDrive::LogicalDrive()
                        0x00013217   0x46  Code  Gb  ddi_ldl_init.o [6]
LogicalDrive::LogicalDrive() [subobject]
                        0x00013015    0xc  Code  Gb  ddi_ldl_init.o [6]
LogicalDrive::getInfo(unsigned int, void *)
                        0x00013835   0xca  Code  Gb  ddi_ldl_drive_get_info.o [6]
LogicalDrive::getMedia()
                        0x00015649    0x4  Code  Gb  ddi_ldl_init.o [6]
LogicalDrive::getTag() const
                        0x00015655    0x4  Code  Gb  ddi_ldl_iterator.o [6]
LogicalDrive::isInitialized() const
                        0x00016dc1    0x4  Code  Gb  ddi_ldl_util.o [6]
LogicalDrive::setDidFailInit(bool)
                        0x00015645    0x4  Code  Gb  ddi_ldl_init.o [6]
LogicalDrive::~LogicalDrive()
                        0x0001325d    0x2  Code  Gb  ddi_ldl_init.o [6]
LogicalDrive::~LogicalDrive() [subobject]
                        0x00013021    0xc  Code  Gb  ddi_ldl_init.o [6]
LogicalMedia::LogicalMedia()
                        0x000131e5   0x30  Code  Gb  ddi_ldl_init.o [6]
LogicalMedia::LogicalMedia() [subobject]
                        0x00012ffd    0xc  Code  Gb  ddi_ldl_init.o [6]
LogicalMedia::getInfo(unsigned int, void *)
                        0x000137b1   0x84  Code  Gb  ddi_ldl_util.o [6]
LogicalMedia::getMediaNumber() const
                        0x00016dbd    0x4  Code  Gb  ddi_ldl_util.o [6]
LogicalMedia::getNumberOfDrives() const
                        0x0001564d    0x4  Code  Gb  ddi_ldl_init.o [6]
LogicalMedia::isInitialized() const
                        0x00015641    0x4  Code  Gb  ddi_ldl_util.o [6]
LogicalMedia::setNumberOfDrives(unsigned int)
                        0x00015651    0x4  Code  Gb  ddi_ldl_init.o [6]
LogicalMedia::~LogicalMedia()
                        0x00013215    0x2  Code  Gb  ddi_ldl_init.o [6]
LogicalMedia::~LogicalMedia() [subobject]
                        0x00013009    0xc  Code  Gb  ddi_ldl_init.o [6]
MCGTransitionMatrix     0x000284cc   0x1c  Data  Lc  bsp_cm.o [3]
MFS_Add_cluster_to_chain
                        0x0000fd8d   0x16  Code  Gb  mfs_cluster.o [8]
MFS_Attribute_match     0x00015161   0xac  Code  Gb  mfs_parse.o [8]
MFS_Bad_clusters        0x0000fe09   0x5c  Code  Gb  mfs_cluster.o [8]
MFS_Change_current_dir  0x000102db  0x1ae  Code  Gb  mfs_directory.o [8]
MFS_Check_dir_exist     0x00010489   0x7a  Code  Gb  mfs_directory.o [8]
MFS_Check_search_string_for_8dot3
                        0x00014b73   0x66  Code  Gb  mfs_search.o [8]
MFS_Check_search_string_for_all
                        0x00014b0b   0x68  Code  Gb  mfs_search.o [8]
MFS_Clear_cluster       0x0000fda3   0x66  Code  Gb  mfs_cluster.o [8]
MFS_Close_Device        0x0000ba5d  0x13c  Code  Gb  mfs_init.o [8]
MFS_Close_file          0x0000e9cf   0xe4  Code  Gb  mfs_open.o [8]
MFS_Compress_nondotfile
                        0x00014fd7   0x8c  Code  Gb  mfs_parse.o [8]
MFS_Create_directory_entry
                        0x00011681  0x584  Code  Gb  mfs_dir_entry.o [8]
MFS_Create_entry_slave  0x00011c7f  0x18e  Code  Gb  mfs_dir_entry.o [8]
MFS_Create_file         0x0000ec8d  0x26c  Code  Gb  mfs_create.o [8]
MFS_Create_new_file     0x0000eef9   0xe2  Code  Gb  mfs_create.o [8]
MFS_Create_subdir       0x0000ff51  0x200  Code  Gb  mfs_directory.o [8]
MFS_Create_temp_file    0x0000efdb  0x18e  Code  Gb  mfs_create.o [8]
MFS_Decrement_free_clusters
                        0x0000fb2f   0x26  Code  Gb  mfs_cluster.o [8]
MFS_Default_Format      0x00012cbd   0x96  Code  Gb  mfs_format.o [8]
MFS_Delete_file         0x000112bb  0x102  Code  Gb  mfs_delete.o [8]
MFS_Dirname_valid       0x00015135   0x2c  Code  Gb  mfs_parse.o [8]
MFS_Error_text          0x0000be2f  0x13e  Code  Gb  mfs_misc.o [8]
MFS_Expand_dotfile      0x00014ee1   0xf6  Code  Gb  mfs_parse.o [8]
MFS_Expand_wildcard     0x00014e27   0xba  Code  Gb  mfs_parse.o [8]
MFS_Extend_chain        0x0000fc9d   0xf0  Code  Gb  mfs_cluster.o [8]
MFS_Filename_valid      0x00015063   0xd2  Code  Gb  mfs_parse.o [8]
MFS_Find_directory      0x000146bb  0x14a  Code  Gb  mfs_search.o [8]
MFS_Find_directory_entry
                        0x000143e7  0x2d4  Code  Gb  mfs_search.o [8]
MFS_Find_entry_on_disk  0x00014805   0xec  Code  Gb  mfs_search.o [8]
MFS_Find_first_file     0x00010503  0x144  Code  Gb  mfs_directory.o [8]
MFS_Find_handle         0x00014c37   0x34  Code  Gb  mfs_handle.o [8]
MFS_Find_next_file      0x00010647   0x2c  Code  Gb  mfs_directory.o [8]
MFS_Find_next_slave     0x000148f1  0x21a  Code  Gb  mfs_search.o [8]
MFS_Find_unused_cluster_from
                        0x0000fb55   0x84  Code  Gb  mfs_cluster.o [8]
MFS_Flush_caches        0x00012269   0x3e  Code  Gb  mfs_rw.o [8]
MFS_Flush_data_sector_buffer
                        0x00012ea3   0x3c  Code  Gb  mfs_data_sector.o [8]
MFS_Flush_directory_sector_buffer
                        0x00012195   0x38  Code  Gb  mfs_rw.o [8]
MFS_Flush_fat_cache     0x000122a9   0x90  Code  Gb  mfs_fat.o [8]
MFS_Format              0x000126bd  0x5f6  Code  Gb  mfs_format.o [8]
MFS_Format_and_test     0x00012e6d   0x36  Code  Gb  mfs_format.o [8]
MFS_Free_handle         0x00014c15   0x22  Code  Gb  mfs_handle.o [8]
MFS_Get_current_dir     0x0001029f   0x3c  Code  Gb  mfs_directory.o [8]
MFS_Get_date_time       0x00010907   0x64  Code  Gb  mfs_time.o [8]
MFS_Get_disk_free_space
                        0x0000fe95   0x54  Code  Gb  mfs_cluster.o [8]
MFS_Get_disk_free_space_internal
                        0x0000fee9   0x68  Code  Gb  mfs_cluster.o [8]
MFS_Get_file_attributes
                        0x000107f7   0x68  Code  Gb  mfs_attribute.o [8]
MFS_Get_handle          0x00014bd9   0x36  Code  Gb  mfs_handle.o [8]
MFS_Get_volume          0x00010769   0x8e  Code  Gb  mfs_directory.o [8]
MFS_Increment_dir_index
                        0x00011e0d   0x86  Code  Gb  mfs_dir_entry.o [8]
MFS_Increment_free_clusters
                        0x0000fb09   0x26  Code  Gb  mfs_cluster.o [8]
MFS_Invalidate_data_sector
                        0x00012edf   0x26  Code  Gb  mfs_data_sector.o [8]
MFS_Invalidate_directory_sector
                        0x0001216f   0x26  Code  Gb  mfs_rw.o [8]
MFS_Is_dot_directory    0x00015255   0x2e  Code  Gb  mfs_parse.o [8]
MFS_Last_cluster        0x0000fe69   0x2c  Code  Gb  mfs_cluster.o [8]
MFS_Mount_drive_internal
                        0x0000b439  0x4c0  Code  Gb  mfs_init.o [8]
MFS_Move_file_pointer   0x0000eab3  0x1da  Code  Gb  mfs_open.o [8]
MFS_Open_Device         0x0000b927  0x136  Code  Gb  mfs_init.o [8]
MFS_Open_file           0x0000e8ad  0x122  Code  Gb  mfs_open.o [8]
MFS_Parse_Out_Device_Name
                        0x0000b905   0x22  Code  Gb  mfs_init.o [8]
MFS_Parse_next_filename
                        0x0001520d   0x48  Code  Gb  mfs_parse.o [8]
MFS_Parse_pathname      0x00014d2b   0xc0  Code  Gb  mfs_parse.o [8]
MFS_Put_fat             0x00012549  0x172  Code  Gb  mfs_fat.o [8]
MFS_Read                0x0000f2af  0x2d2  Code  Gb  mfs_read.o [8]
MFS_Read_data_sector    0x00012f05   0x4c  Code  Gb  mfs_data_sector.o [8]
MFS_Read_device_sector  0x00012153   0x1c  Code  Gb  mfs_rw.o [8]
MFS_Read_device_sectors
                        0x00012059   0xfa  Code  Gb  mfs_rw.o [8]
MFS_Read_directory_sector
                        0x000121cd   0x9c  Code  Gb  mfs_rw.o [8]
MFS_Read_fat            0x00012363   0xd2  Code  Gb  mfs_fat.o [8]
MFS_Release_chain       0x0000fbd9   0xc4  Code  Gb  mfs_cluster.o [8]
MFS_Remove_subdir       0x00010159  0x146  Code  Gb  mfs_directory.o [8]
MFS_Rename_file         0x000113bd  0x2c4  Code  Gb  mfs_rename.o [8]
MFS_Set_date_time       0x0001096b   0x8e  Code  Gb  mfs_time.o [8]
MFS_Set_file_attributes
                        0x0001085f   0xa8  Code  Gb  mfs_attribute.o [8]
MFS_Set_volume          0x00010673   0xf2  Code  Gb  mfs_directory.o [8]
MFS_Test_unused_clusters
                        0x00012d53  0x100  Code  Gb  mfs_format.o [8]
MFS_Update_entry        0x00011c09   0x76  Code  Gb  mfs_dir_entry.o [8]
MFS_Wildcard_match      0x00014df1   0x36  Code  Gb  mfs_parse.o [8]
MFS_Write               0x0000f581  0x588  Code  Gb  mfs_write.o [8]
MFS_Write_back_fat      0x00012339   0x2a  Code  Gb  mfs_fat.o [8]
MFS_Write_device_sector
                        0x0001203d   0x1c  Code  Gb  mfs_rw.o [8]
MFS_Write_device_sectors
                        0x00011e93  0x1aa  Code  Gb  mfs_rw.o [8]
MFS_alloc_2paths        0x0000bde7   0x32  Code  Gb  mfs_misc.o [8]
MFS_alloc_path          0x0000bdbf   0x28  Code  Gb  mfs_misc.o [8]
MFS_free_drive_data     0x0000b3eb   0x4e  Code  Lc  mfs_init.o [8]
MFS_free_path           0x0000be19   0x16  Code  Gb  mfs_misc.o [8]
MFS_get_cluster_from_fat
                        0x00012435  0x110  Code  Gb  mfs_fat.o [8]
MFS_get_lfn             0x0001105f   0x40  Code  Gb  mfs_lfn.o [8]
MFS_get_lfn_dir_cluster
                        0x00011197  0x124  Code  Gb  mfs_lfn.o [8]
MFS_get_lfn_of_entry    0x0001109f   0xf8  Code  Gb  mfs_lfn.o [8]
MFS_get_prev_cluster    0x00010fc3   0x9c  Code  Gb  mfs_lfn.o [8]
MFS_increment_lfn       0x00010d85   0x60  Code  Gb  mfs_lfn.o [8]
MFS_is_read_only        0x0000bba5   0x22  Code  Gb  mfs_misc.o [8]
MFS_is_valid_lfn        0x00010bc7   0x70  Code  Gb  mfs_lfn.o [8]
MFS_lfn_checksum        0x00010f9f   0x24  Code  Gb  mfs_lfn.o [8]
MFS_lfn_dirname_valid   0x00010c3d   0x2c  Code  Gb  mfs_lfn.o [8]
MFS_lfn_extract         0x00010d41   0x44  Code  Gb  mfs_lfn.o [8]
MFS_lfn_match           0x00010c69   0xd8  Code  Gb  mfs_lfn.o [8]
MFS_lfn_name_to_entry   0x00010ebd   0xe2  Code  Gb  mfs_lfn.o [8]
MFS_lfn_to_sfn          0x000109f9  0x1ce  Code  Gb  mfs_lfn.o [8]
MFS_lock                0x0000bbc7   0x38  Code  Gb  mfs_misc.o [8]
MFS_lock_dos_disk       0x0000bbff   0x52  Code  Gb  mfs_misc.o [8]
MFS_lock_handle         0x0000bc51   0x66  Code  Gb  mfs_misc.o [8]
MFS_mem_alloc           0x0000bd2d   0x20  Code  Gb  mfs_misc.o [8]
MFS_mem_alloc_system    0x0000bd7f   0x20  Code  Gb  mfs_misc.o [8]
MFS_mem_alloc_system_zero
                        0x0000bd9f   0x20  Code  Gb  mfs_misc.o [8]
MFS_mem_alloc_zero      0x0000bd4d   0x32  Code  Gb  mfs_misc.o [8]
MFS_next_data_sector    0x0000f231   0x7e  Code  Gb  mfs_read.o [8]
MFS_remove_lfn_entries  0x00010de5   0xd8  Code  Gb  mfs_lfn.o [8]
MFS_strupr              0x00014d0d   0x1e  Code  Gb  mfs_parse.o [8]
MFS_unlock              0x0000bcb7   0x76  Code  Gb  mfs_misc.o [8]
MQX_init_struct         0x0002a2e4   0x30  Data  Gb  mqx_init.o [3]
MQX_template_list       0x1fff0000   0x40  Data  Gb  demo.o [1]
MediaAllocateFromPreDefineRegions
                        0x000130a9   0x30  Code  Gb  ddi_ldl_init.o [6]
MediaBuffer::MediaBuffer()
                        0x0001e085    0x6  Code  Gb  ddi_nand_data_drive_erase.o [6]
MediaBuffer::MediaBuffer() [subobject]
                        0x0001dffd    0xc  Code  Gb  ddi_nand_data_drive_erase.o [6]
MediaBuffer::acquire(_media_buffer_type, unsigned int)
                        0x0001e009   0x1c  Code  Gb  ddi_nand_data_drive_erase.o [6]
MediaBuffer::getBuffer() const
                        0x0001ddf3    0x4  Code  Gb  zone_map_section_page.o [6]
MediaBuffer::hasBuffer() const
                        0x0001e1bd   0x10  Code  Gb  ddi_nand_data_drive_erase.o [6]
MediaBuffer::operator =(unsigned char *)
                        0x0001e191   0x12  Code  Gb  ddi_page.o [6]
MediaBuffer::operator unsigned char *()
                        0x0001bbaf    0x4  Code  Gb  ddi_nand_data_drive_erase.o [6]
MediaBuffer::release()  0x0001e1a3   0x1a  Code  Gb  ddi_nand_data_drive_erase.o [6]
MediaBuffer::set(void *)
                        0x0001e335   0x1e  Code  Gb  ddi_page.o [6]
MediaBuffer::~MediaBuffer()
                        0x0001e08b    0xe  Code  Gb  ddi_nand_data_drive_erase.o [6]
MediaBuffer::~MediaBuffer() [subobject]
                        0x0001e025    0xc  Code  Gb  ddi_nand_data_drive_erase.o [6]
MediaBuildFromPreDefine
                        0x0001309f    0xa  Code  Gb  ddi_ldl_init.o [6]
MediaGetInfo            0x000136d1   0x44  Code  Gb  ddi_ldl_util.o [6]
MediaGetMaximumAuxSize  0x0001375f   0x4a  Code  Gb  ddi_ldl_util.o [6]
MediaGetMaximumSectorSize
                        0x00013715   0x4a  Code  Gb  ddi_ldl_util.o [6]
MediaGetMediaFromIndex(unsigned int)
                        0x00013641   0x1c  Code  Gb  ddi_ldl_util.o [6]
MediaInit               0x0001303b   0x64  Code  Gb  ddi_ldl_init.o [6]
MediaShutdown           0x000134c9   0x5a  Code  Gb  ddi_ldl_write.o [6]
NFCNandMedia::NFCNandMedia(unsigned int)
                        0x0001a355   0x1e  Code  Gb  ddi_nand_hal_nfcphymedia.o [6]
NFCNandMedia::checkSpaceForMetadata()
                        0x0001a65d   0x34  Code  Gb  ddi_nand_hal_nfcphymedia.o [6]
NFCNandMedia::copyPages(NandPhysicalMedia *, unsigned int, unsigned int, unsigned int, unsigned char *, unsigned char *, NandCopyPagesFilter *, unsigned int *)
                        0x0001a4f5   0xce  Code  Gb  ddi_nand_hal_nfcphymedia.o [6]
NFCNandMedia::eraseBlock(unsigned int)
                        0x0001a4d7   0x1e  Code  Gb  ddi_nand_hal_nfcphymedia.o [6]
NFCNandMedia::getAuxSize()
                        0x0001d171    0x6  Code  Gb  ddi_nand_hal_nfcphymedia.o [6]
NFCNandMedia::getDeviceName()
                        0x00006c23    0x6  Code  Gb  ddi_nand_hal_nfcphymedia.o [6]
NFCNandMedia::initChipParam()
                        0x0001a373   0x32  Code  Gb  ddi_nand_hal_nfcphymedia.o [6]
NFCNandMedia::initHalContextParams()
                        0x0001a3a5   0x78  Code  Gb  ddi_nand_hal_nfcphymedia.o [6]
NFCNandMedia::isBlockBad(unsigned int, unsigned char *, bool, unsigned long *)
                        0x0001a5c3   0x40  Code  Gb  ddi_nand_hal_nfcphymedia.o [6]
NFCNandMedia::markBlockBad(unsigned int, unsigned char *, unsigned char *)
                        0x0001a603   0x5a  Code  Gb  ddi_nand_hal_nfcphymedia.o [6]
NFCNandMedia::readID(unsigned char *)
                        0x0001a431   0x14  Code  Gb  ddi_nand_hal_nfcphymedia.o [6]
NFCNandMedia::readMetadata(unsigned int, unsigned char *)
                        0x0001a479   0x2a  Code  Gb  ddi_nand_hal_nfcphymedia.o [6]
NFCNandMedia::readPage(unsigned int, unsigned char *, unsigned char *)
                        0x0001a445   0x34  Code  Gb  ddi_nand_hal_nfcphymedia.o [6]
NFCNandMedia::writePage(unsigned int, unsigned char const *, unsigned char const *)
                        0x0001a4a3   0x34  Code  Gb  ddi_nand_hal_nfcphymedia.o [6]
NFCNandMedia::~NFCNandMedia()
                        0x00024fe1    0xe  Code  Gb  ddi_nand_hal_nfcphymedia.o [6]
NFCNandMedia::~NFCNandMedia() [deleting]
                        0x00024fef   0x16  Code  Gb  ddi_nand_hal_nfcphymedia.o [6]
NandCopyPagesFilter::NandCopyPagesFilter()
                        0x0001e353    0x2  Code  Gb  nonsequential_sectors_map.o [6]
NandCopyPagesFilter::NandCopyPagesFilter() [subobject]
                        0x0001e1d5    0xc  Code  Gb  nonsequential_sectors_map.o [6]
NandHal::SleepHelper::SleepHelper(bool)
                        0x0001c18f    0x2  Code  Gb  ddi_nand_ndd_write_sector.o [6]
NandHal::SleepHelper::~SleepHelper()
                        0x0001c195    0x2  Code  Gb  ddi_nand_ndd_write_sector.o [6]
NandHal::getChipSelectForAbsoluteBlock(unsigned int)
                        0x00017705   0x3a  Code  Gb  ddi_nand_hal_common.o [6]
NandHal::getChipSelectForAbsolutePage(unsigned int)
                        0x0001773f   0x18  Code  Gb  ddi_nand_hal_common.o [6]
NandHal::getFirstNand()
                        0x000176cd    0xa  Code  Gb  ddi_nand_data_drive_read_sector.o [6]
NandHal::getNand(unsigned int)
                        0x000176e5   0x20  Code  Gb  ddi_nand_hal_common.o [6]
NandHal::getNandForAbsoluteBlock(unsigned int)
                        0x00017757   0x10  Code  Gb  ddi_nand_hal_common.o [6]
NandHal::getNandForAbsolutePage(unsigned int)
                        0x00017767   0x10  Code  Gb  ddi_nand_hal_common.o [6]
NandHal::getParameters()
                        0x000176e1    0x4  Code  Gb  ddi_nand_hal_common.o [6]
NandHal::getTotalBlockCount()
                        0x00017777    0x6  Code  Gb  ddi_nand_hal_common.o [6]
NandHal::init()         0x00017629   0x62  Code  Gb  ddi_nand_hal_init.o [6]
NandHal::isAbsoluteBlockValid(unsigned int)
                        0x0001777d   0x2c  Code  Gb  ddi_nand_hal_common.o [6]
NandHal::isAbsolutePageValid(unsigned int)
                        0x000177a9   0x18  Code  Gb  ddi_nand_hal_common.o [6]
NandHal::shutdown()     0x0001768b   0x3a  Code  Gb  ddi_nand_hal_init.o [6]
NandHalSetMqxPtr        0x0001302d    0xe  Code  Gb  ddi_ldl_init.o [6]
NandPhysicalMedia::NandPhysicalMedia()
                        0x0001e203    0x2  Code  Gb  ddi_nand_hal_nfcphymedia.o [6]
NandPhysicalMedia::NandPhysicalMedia() [subobject]
                        0x0001d137    0xc  Code  Gb  ddi_nand_hal_nfcphymedia.o [6]
NandPhysicalMedia::baseAbsoluteBlock()
                        0x0001e1d1    0x4  Code  Gb  ddi_nand_data_drive_erase.o [6]
NandPhysicalMedia::blockAndOffsetToPage(unsigned int, unsigned int)
                        0x0001d165    0xc  Code  Gb  ddi_nand_data_drive_erase.o [6]
NandPhysicalMedia::blockAndOffsetToRelativePage(unsigned int, unsigned int)
                        0x0001cfdd   0x1a  Code  Gb  ddi_nand_ndd_write_sector.o [6]
NandPhysicalMedia::blockToRelative(unsigned int)
                        0x0001cf8b    0x8  Code  Gb  ddi_nand_ndd_write_sector.o [6]
NandPhysicalMedia::pageToBlock(unsigned int)
                        0x0001a691    0xa  Code  Gb  ddi_nand_hal_common.o [6]
NandPhysicalMedia::pageToBlockAndOffset(unsigned int, unsigned int *, unsigned int *)
                        0x0001e099   0x18  Code  Gb  ddi_nand_data_drive_read_sector.o [6]
NandPhysicalMedia::pageToRelative(unsigned int)
                        0x0001e30b   0x10  Code  Gb  ddi_block.o [6]
NandPhysicalMedia::~NandPhysicalMedia()
                        0x00024fd3    0x2  Code  Gb  ddi_nand_hal_nfcphymedia.o [6]
NandPhysicalMedia::~NandPhysicalMedia() [subobject]
                        0x00024fd5    0xc  Code  Gb  ddi_nand_hal_nfcphymedia.o [6]
PE_CpuClockConfigurations
                        0x000284e8   0x78  Data  Gb  bsp_cm.o [3]
PE_low_level_init       0x0000185d   0xa2  Code  Gb  bsp_cm.o [3]
RedBlackTree::NilNode::NilNode()
                        0x0001e0c9   0x18  Code  Gb  red_black_tree.o [6]
RedBlackTree::NilNode::getKey() const
                        0x00003677    0xa  Code  Gb  red_black_tree.o [6]
RedBlackTree::NilNode::~NilNode()
                        0x0001e0e1    0xe  Code  Gb  red_black_tree.o [6]
RedBlackTree::Node::Node()
                        0x0001e105   0x12  Code  Gb  red_black_tree.o [6]
RedBlackTree::Node::Node() [subobject]
                        0x0001c8f3    0xc  Code  Gb  red_black_tree.o [6]
RedBlackTree::Node::~Node()
                        0x0001e117    0x2  Code  Gb  red_black_tree.o [6]
RedBlackTree::Node::~Node() [subobject]
                        0x0001c91b    0xc  Code  Gb  red_black_tree.o [6]
RedBlackTree::RedBlackTree()
                        0x0001c1d9   0x64  Code  Gb  red_black_tree.o [6]
RedBlackTree::RootNode::RootNode()
                        0x0001e0b1   0x18  Code  Gb  red_black_tree.o [6]
RedBlackTree::RootNode::getKey() const
                        0x00024fc7    0xc  Code  Gb  red_black_tree.o [6]
RedBlackTree::RootNode::~RootNode()
                        0x0001e0ef    0xe  Code  Gb  red_black_tree.o [6]
RedBlackTree::checkAssumptions() const
                        0x0001c6c7   0x36  Code  Gb  red_black_tree.o [6]
RedBlackTree::deleteFixUp(RedBlackTree::Node *)
                        0x0001c4c1  0x11e  Code  Gb  red_black_tree.o [6]
RedBlackTree::find(long long) const
                        0x0001c253   0x40  Code  Gb  red_black_tree.o [6]
RedBlackTree::getSuccessorOf(RedBlackTree::Node *) const
                        0x0001c47b   0x46  Code  Gb  red_black_tree.o [6]
RedBlackTree::insert(RedBlackTree::Node *)
                        0x0001c39d   0xde  Code  Gb  red_black_tree.o [6]
RedBlackTree::insertFixUp(RedBlackTree::Node *)
                        0x0001c30b   0x92  Code  Gb  red_black_tree.o [6]
RedBlackTree::leftRotate(RedBlackTree::Node *)
                        0x0001c293   0x3c  Code  Gb  red_black_tree.o [6]
RedBlackTree::remove(RedBlackTree::Node *)
                        0x0001c5df   0xe8  Code  Gb  red_black_tree.o [6]
RedBlackTree::rightRotate(RedBlackTree::Node *)
                        0x0001c2cf   0x3c  Code  Gb  red_black_tree.o [6]
RedBlackTree::~RedBlackTree()
                        0x0001c23d   0x16  Code  Gb  red_black_tree.o [6]
Region$$Table$$Base     0x000253e8          --   Gb  - Linker created -
Region$$Table$$Limit    0x00025430          --   Gb  - Linker created -
SectorBuffer::SectorBuffer()
                        0x0001cfb1    0xe  Code  Gb  ddi_nand_data_drive_erase.o [6]
SectorBuffer::acquire()
                        0x0001cfbf   0x10  Code  Gb  ddi_nand_data_drive_erase.o [6]
SectorBuffer::~SectorBuffer()
                        0x0001cfcf    0xe  Code  Gb  ddi_nand_data_drive_erase.o [6]
Shell                   0x0000cb79  0x23c  Code  Gb  shell.o [12]
Shell_cd                0x0001e5a9  0x154  Code  Gb  sh_cd.o [12]
Shell_check_help_request
                        0x0000ceeb   0x34  Code  Gb  sh_util.o [12]
Shell_command_list      0x0001e6fd   0xa0  Code  Gb  sh_cmdlist.o [12]
Shell_commands          0x000259bc   0xc8  Data  Gb  demo.o [1]
Shell_copy              0x0001e79d  0x210  Code  Gb  sh_copy.o [12]
Shell_create            0x0001e9f1  0x124  Code  Gb  sh_create.o [12]
Shell_del               0x0001eb15  0x120  Code  Gb  sh_del.o [12]
Shell_di                0x0001ee79  0x1d4  Code  Gb  sh_di.o [12]
Shell_dir               0x0001f0ed  0x164  Code  Gb  sh_dir.o [12]
Shell_disect            0x0001f641  0x1d0  Code  Gb  sh_disect.o [12]
Shell_exit              0x0001f811   0x68  Code  Gb  sh_exit.o [12]
Shell_format            0x0001f879  0x190  Code  Gb  sh_format.o [12]
Shell_get_current_filesystem
                        0x0000cf1f   0x38  Code  Gb  sh_util.o [12]
Shell_get_current_filesystem_name
                        0x0000cf57   0x38  Code  Gb  sh_util.o [12]
Shell_help              0x0001fa09  0x118  Code  Gb  sh_help.o [12]
Shell_init_current_filesystem
                        0x0000d00f   0x14  Code  Lc  sh_util.o [12]
Shell_mfs_rename        0x0001ff11   0x1a  Code  Lc  sh_rename.o [12]
Shell_mkdir             0x0001fb21  0x10c  Code  Gb  sh_mkdir.o [12]
Shell_parse_command_line
                        0x0000cdb5   0xa6  Code  Gb  sh_util.o [12]
Shell_parse_int_32      0x0000ce95   0x56  Code  Gb  sh_util.o [12]
Shell_parse_uint_32     0x0000ce5b   0x3a  Code  Gb  sh_util.o [12]
Shell_pwd               0x0001fc2d   0x9c  Code  Gb  sh_pwd.o [12]
Shell_read              0x0001fcc9  0x248  Code  Gb  sh_read.o [12]
Shell_rename            0x0001ff2b  0x150  Code  Gb  sh_rename.o [12]
Shell_rmdir             0x000200a1  0x12c  Code  Gb  sh_rmdir.o [12]
Shell_set_current_filesystem
                        0x0000cf8f   0x52  Code  Gb  sh_util.o [12]
Shell_set_current_filesystem_by_name
                        0x0000cfed   0x22  Code  Gb  sh_util.o [12]
Shell_sh                0x000201cd   0xe4  Code  Gb  sh_sh.o [12]
Shell_type              0x000202b1  0x138  Code  Gb  sh_type.o [12]
Shell_write             0x000203e9  0x2d8  Code  Gb  sh_write.o [12]
SimpleMutex::CreateMutexAttr()
                        0x00017559   0x32  Code  Gb  simple_mutex.o [6]
SimpleMutex::DestroyMutex(mutex_struct *)
                        0x000175b3   0x22  Code  Gb  simple_mutex.o [6]
SimpleMutex::InitMutex(mutex_struct *)
                        0x0001758b   0x28  Code  Gb  simple_mutex.o [6]
SimpleMutex::SimpleMutex(mutex_struct &)
                        0x000175d5   0x30  Code  Gb  simple_mutex.o [6]
SimpleMutex::SimpleMutex(mutex_struct &) [subobject]
                        0x00017541    0xc  Code  Gb  simple_mutex.o [6]
SimpleMutex::m_mutexattr
                        0x1fff09b4   0x14  Data  Gb  simple_mutex.o [6]
SimpleMutex::~SimpleMutex()
                        0x00017619    0xe  Code  Gb  simple_mutex.o [6]
SimpleMutex::~SimpleMutex() [subobject]
                        0x0001754d    0xc  Code  Gb  simple_mutex.o [6]
SimpleTimer::SimpleTimer()
                        0x0001c197   0x10  Code  Gb  mapper.o [6]
TEXTSECTION$$Base       0x00000420          --   Gb  - Linker created -
TEXTSECTION$$Limit      0x00025112          --   Gb  - Linker created -
Thunk for (offset -20) nand::NonsequentialSectorsMap::getWeight() const
                        0x00024f37    0x6  Code  Gb  nonsequential_sectors_map.o [6]
Thunk for (offset -20) nand::NonsequentialSectorsMap::isNodeValid() const
                        0x00024f31    0x6  Code  Gb  nonsequential_sectors_map.o [6]
USER_DEFAULT_MEMORY$$Base
                        0x1fff0000          --   Gb  - Linker created -
USER_DEFAULT_MEMORY$$Limit
                        0x1fff0a5a          --   Gb  - Linker created -
USER_MEMORY$$Base       0x1fff0000          --   Gb  - Linker created -
USER_MEMORY$$Limit      0x1fff0a5a          --   Gb  - Linker created -
Virtual function table for NFCNandMedia
                        0x00029af0   0x54  Data  Gb  ddi_nand_hal_nfcphymedia.o [6]
Virtual function table for RedBlackTree
                        0x000291f8   0x10  Data  Gb  red_black_tree.o [6]
Virtual function table for RedBlackTree::NilNode
                        0x000291e4   0x14  Data  Gb  red_black_tree.o [6]
Virtual function table for RedBlackTree::RootNode
                        0x000291d0   0x14  Data  Gb  red_black_tree.o [6]
Virtual function table for WeightedLRUList::Node
                        0x000292d0   0x10  Data  Gb  wlru.o [6]
Virtual function table for nand::BootRegion
                        0x00028fb4   0x24  Data  Gb  ddi_nand_media_discover.o [6]
Virtual function table for nand::DataDrive
                        0x00029be8   0x38  Data  Gb  ddi_nand_data_drive_init.o [6]
Virtual function table for nand::DataRegion
                        0x00028f90   0x24  Data  Gb  ddi_nand_media_discover.o [6]
Virtual function table for nand::DeferredTask
                        0x000292e0   0x28  Data  Gb  deferred_task.o [6]
Virtual function table for nand::Media
                        0x000282d0   0x48  Data  Gb  ddi_nand_media_init.o [6]
Virtual function table for nand::NonsequentialSectorsMap
                        0x00028770   0x2c  Data  Gb  nonsequential_sectors_map.o [6]
Virtual function table for nand::NonsequentialSectorsMap::CopyPagesFlagFilter
                        0x000287c4    0xc  Data  Gb  nonsequential_sectors_map.o [6]
Virtual function table for nand::Page
                        0x000293fc   0x24  Data  Gb  ddi_page.o [6]
Virtual function table for nand::PersistentMap
                        0x00029de0   0x18  Data  Gb  persistent_map.o [6]
Virtual function table for nand::PersistentPhyMap
                        0x000298d8   0x18  Data  Gb  persistent_phy_map.o [6]
Virtual function table for nand::RelocateVirtualBlockTask
                        0x0002879c   0x28  Data  Gb  nonsequential_sectors_map.o [6]
Virtual function table for nand::SystemRegion
                        0x000282ac   0x24  Data  Gb  ddi_nand_media_init.o [6]
Virtual function table for nand::ZoneMapCache
                        0x0002979c   0x18  Data  Gb  zone_map_cache.o [6]
Virtual function table for nand::ZoneMapSectionPage
                        0x00029ef0   0x24  Data  Gb  zone_map_section_page.o [6]
WeightedLRUList::Node::Node()
                        0x0001c75f   0x12  Code  Gb  wlru.o [6]
WeightedLRUList::Node::Node() [subobject]
                        0x0001c715    0xc  Code  Gb  wlru.o [6]
WeightedLRUList::WeightedLRUList(int, int, unsigned int)
                        0x0001c721   0x3e  Code  Gb  wlru.o [6]
WeightedLRUList::insert(WeightedLRUList::Node *)
                        0x0001c775   0x88  Code  Gb  wlru.o [6]
WeightedLRUList::select()
                        0x0001c7fd   0x2c  Code  Gb  wlru.o [6]
_BSP_sram_pool          0x1fff07a4    0x4  Data  Gb  init_bsp.o [3]
_LocaleC_isalpha        0x0001d0eb   0x22  Code  Gb  io_util.o [9]
_LocaleC_islower        0x0001e1f1   0x12  Code  Gb  io_util.o [9]
_LocaleC_ispunct        0x0001d10d   0x2a  Code  Gb  io_util.o [9]
_LocaleC_isupper        0x000174ef   0x12  Code  Gb  io_util.o [9]
_LocaleC_tolower        0x00017501   0x16  Code  Gb  io_util.o [9]
_MFS_handle_pool_grow   0x1fff0048    0x4  Data  Gb  mfs_init.o [8]
_MFS_handle_pool_init   0x1fff0044    0x4  Data  Gb  mfs_init.o [8]
_MFS_handle_pool_max    0x1fff0720    0x4  Data  Gb  mfs_init.o [8]
_MFS_pool_id            0x1fff071c    0x4  Data  Gb  mfs_init.o [8]
_MT29F2G16_organization_16bit
                        0x1fff0128   0x14  Data  Gb  MT29F2G16.o [3]
__BOOT_STACK_ADDRESS {Abs}
                        0x2000fef0          --   Gb  command line/config [2]
__DEFAULT_INTERRUPT_STACK_SIZE {Abs}
                        0x00000400          --   Gb  command line/config [2]
__DEFAULT_PROCESSOR_NUMBER {Abs}
                        0x00000001          --   Gb  command line/config [2]
__EXTERNAL_LCD_BASE {Abs}
                        0x60000000          --   Gb  command line/config [2]
__EXTERNAL_LCD_DC_BASE {Abs}
                        0x60010000          --   Gb  command line/config [2]
__EXTERNAL_LCD_SIZE {Abs}
                        0x0001ffff          --   Gb  command line/config [2]
__EXTERNAL_MRAM_RAM_BASE {Abs}
                        0x60000000          --   Gb  command line/config [2]
__EXTERNAL_MRAM_RAM_SIZE {Abs}
                        0x00080000          --   Gb  command line/config [2]
__EXTERNAL_MRAM_ROM_BASE {Abs}
                        0x60000000          --   Gb  command line/config [2]
__EXTERNAL_MRAM_ROM_SIZE {Abs}
                        0x00000000          --   Gb  command line/config [2]
__FLASHX_END_ADDR {Abs}
                        0x00100000          --   Gb  command line/config [2]
__FLASHX_SECT_SIZE {Abs}
                        0x00001000          --   Gb  command line/config [2]
__FLASHX_START_ADDR     0x0002b000    0x1  Data  Gb  vectors.o [3]
__INTERNAL_FLASH_BASE {Abs}
                        0x00000000          --   Gb  command line/config [2]
__INTERNAL_FLASH_SIZE {Abs}
                        0x00100000          --   Gb  command line/config [2]
__INTERNAL_FLEXNVM_BASE {Abs}
                        0x00000000          --   Gb  command line/config [2]
__INTERNAL_FLEXNVM_SIZE {Abs}
                        0x00000000          --   Gb  command line/config [2]
__INTERNAL_SRAM_BASE {Abs}
                        0x1fff0000          --   Gb  command line/config [2]
__INTERNAL_SRAM_SIZE {Abs}
                        0x00020000          --   Gb  command line/config [2]
__KERNEL_AREA_END {Abs}
                        0x20007ff0          --   Gb  command line/config [2]
__KERNEL_AREA_START {Abs}
                        0x1fff0000          --   Gb  command line/config [2]
__KERNEL_DATA_END {Abs}
                        0x2000fff0          --   Gb  command line/config [2]
__KERNEL_DATA_START     0x1fff0a60         Data  Gb  kernel_symbols.o [9]
__SRAM_POOL {Abs}       0x1fff0000          --   Gb  command line/config [2]
__UNCACHED_DATA_END {Abs}
                        0x2000fff0          --   Gb  command line/config [2]
__UNCACHED_DATA_SIZE {Abs}
                        0x00020000          --   Gb  command line/config [2]
__UNCACHED_DATA_START {Abs}
                        0x1fff0000          --   Gb  command line/config [2]
__USER_AREA_END {Abs}   0x2000fff0          --   Gb  command line/config [2]
__USER_AREA_START {Abs}
                        0x20008000          --   Gb  command line/config [2]
__VECTOR_TABLE_RAM_START {Abs}
                        0x1fff0000          --   Gb  command line/config [2]
__VECTOR_TABLE_ROM_START {Abs}
                        0x00000000          --   Gb  command line/config [2]
__aeabi_cdcmpeq         0x00016f51         Code  Gb  DblCmpEq.o [7]
__aeabi_cdcmple         0x000174c1         Code  Gb  DblCmpLe.o [7]
__aeabi_cdrcmple        0x00017491         Code  Gb  DblCmpGe.o [7]
__aeabi_d2iz            0x00017445         Code  Gb  DblToI32.o [7]
__aeabi_dadd            0x000171b9         Code  Gb  DblAdd.o [7]
__aeabi_ddiv            0x00016f71         Code  Gb  DblDiv.o [7]
__aeabi_dmul            0x000172a1         Code  Gb  DblMul.o [7]
__aeabi_ldiv0           0x0000a229         Code  Gb  I64DivZer.o [10]
__aeabi_ldivmod         0x00009d25         Code  Gb  I64DivMod.o [10]
__aeabi_llsl            0x00014ce9         Code  Gb  I64Shl.o [10]
__aeabi_memcpy          0x00002d45         Code  Gb  ABImemcpy.o [10]
__aeabi_memcpy4         0x00002d65         Code  Gb  ABImemcpy.o [10]
__aeabi_memcpy8         0x00002d65         Code  Gb  ABImemcpy.o [10]
__aeabi_memset          0x00003611         Code  Gb  ABImemset.o [10]
__aeabi_uldivmod        0x00009d69         Code  Gb  I64DivMod.o [10]
__aeabi_vec_delete      0x0001c8b1    0x8  Code  Gb  cxxabi.o [5]
__aeabi_vec_dtor        0x0001c879   0x24  Code  Gb  cxxabi.o [5]
__aeabi_vec_dtor_cookie
                        0x0001c89d   0x14  Code  Gb  cxxabi.o [5]
__aeabi_vec_new_cookie  0x0001c84b   0x2e  Code  Gb  cxxabi.o [5]
__aeabi_vec_new_cookie_noctor
                        0x0001c831   0x1a  Code  Gb  cxxabi.o [5]
__boot                  0x00000451          --   Gb  boot.o [9]
__cmain                 0x000004e1         Code  Gb  cmain.o [10]
__cxa_pure_virtual      0x00025069    0x4  Code  Gb  xpurevirtual.o [4]
__cxa_vec_ctor          0x0001c8c1   0x22  Code  Gb  cxxabi.o [5]
__exit                  0x00003395   0x14  Code  Gb  exit.o [11]
__get_MSP               0x000253b1          --   Gb  dispatch.o [9]
__get_PSP               0x000253ab          --   Gb  dispatch.o [9]
__get_PSR               0x000253bd          --   Gb  dispatch.o [9]
__iar_Memset            0x00003611         Code  Gb  ABImemset.o [10]
__iar_Memset_word       0x00003619         Code  Gb  ABImemset.o [10]
__iar_d2uiz             0x00017471         Code  Gb  DblToI32.o [7]
__iar_dadd              0x000171cd         Code  Gb  DblAdd.o [7]
__iar_data_init3        0x00000519   0x28  Code  Gb  data_init3.o [10]
__iar_debug_exceptions  0x0002a316    0x1  Data  Gb  unwind_debug.o [11]
__iar_dsub              0x0001a1e1         Code  Gb  DblSub.o [7]
__iar_dsubStart         0x0001a1f3         Code  Gb  DblSub.o [7]
__iar_init_vfp          0x000004c1         Code  Gb  fpinit_M.o [7]
__iar_modf              0x00016ea9         Code  Gb  modf.o [7]
__iar_modfl             0x00016ea9         Code  Gb  modf.o [7]
__iar_packbits_init3    0x0002506d   0xa6  Code  Gb  packbits_init3.o [10]
__iar_program_start     0x000004b5         Code  Gb  cstartup_M.o [10]
__iar_strcmp            0x00009ac9         Code  Gb  strcmp.o [10]
__iar_vfp_modf          0x00016e91         Code  Gb  modf.o [7]
__iar_vfp_modfl         0x00016e91         Code  Gb  modf.o [7]
__iar_zero_init3        0x000070db   0x22  Code  Gb  zero_init3.o [10]
__low_level_init        0x000004f7    0xa  Code  Gb  comp.o [9]
__pe_initialize_hardware
                        0x000016d9  0x184  Code  Gb  bsp_cm.o [3]
__psp_ticks_to_microseconds
                        0x0001e259   0x96  Code  Lc  psp_tius.o [9]
__set_MSP               0x0000049b          --   Gb  boot.o [9]
__vector_table          0x00000000  0x400  Data  Gb  vectors.o [3]
_adc_close              0x000059d1   0xe2  Code  Gb  adc.o [3]
_adc_hw_channel_deinit  0x00008bb7   0x5e  Code  Gb  adc_kadc.o [3]
_adc_hw_channel_init    0x00008a89  0x12e  Code  Gb  adc_kadc.o [3]
_adc_hw_deinit          0x00008a6f   0x1a  Code  Gb  adc_kadc.o [3]
_adc_hw_init            0x0000879f  0x2d0  Code  Gb  adc_kadc.o [3]
_adc_hw_install         0x00008797    0x8  Code  Gb  adc_kadc.o [3]
_adc_hw_ioctl           0x00008345  0x452  Code  Gb  adc_kadc.o [3]
_adc_ioctl              0x00005b2d   0xec  Code  Gb  adc.o [3]
_adc_open               0x00005689  0x346  Code  Gb  adc.o [3]
_adc_read               0x00005ab5   0x70  Code  Gb  adc.o [3]
_adc_write              0x00005b25    0x6  Code  Gb  adc.o [3]
_adt_hw_channel_deinit  0x00009579   0xec  Code  Gb  adt_kpdb.o [3]
_adt_hw_channel_init    0x00009413  0x166  Code  Gb  adt_kpdb.o [3]
_adt_hw_deinit          0x0000920d   0x10  Code  Gb  adt_kpdb.o [3]
_adt_hw_init            0x000090e5  0x128  Code  Gb  adt_kpdb.o [3]
_adt_hw_install         0x000090df    0x6  Code  Gb  adt_kpdb.o [3]
_adt_hw_ioctl           0x00008ed9  0x206  Code  Gb  adt_kpdb.o [3]
_adt_pause              0x0000974f   0xc0  Code  Gb  adt_kpdb.o [3]
_adt_process_data       0x0000997b   0xa4  Code  Gb  adt_kpdb.o [3]
_adt_resume             0x0000980f   0xbe  Code  Gb  adt_kpdb.o [3]
_adt_stop               0x000098cd   0xae  Code  Gb  adt_kpdb.o [3]
_adt_trigger            0x00009665   0xea  Code  Gb  adt_kpdb.o [3]
_bsp_adc1_init          0x00028494   0x18  Data  Gb  init_adc.o [3]
_bsp_adc_channel_io_init
                        0x00001cbd  0x1aa  Code  Gb  init_gpio.o [3]
_bsp_adc_io_init        0x00001c55   0x68  Code  Gb  init_gpio.o [3]
_bsp_audio_data_init    0x1fff013c    0x8  Data  Gb  init_sai.o [3]
_bsp_edma_enable        0x0000713f   0x2a  Code  Gb  edma_kinetisf.o [3]
_bsp_enable_card        0x0000318d  0x18c  Code  Gb  init_bsp.o [3]
_bsp_esdhc0_init        0x000284ac    0xc  Data  Gb  init_esdhc.o [3]
_bsp_esdhc_io_init      0x00001e7b   0x6a  Code  Gb  init_gpio.o [3]
_bsp_flexbus_mram_setup
                        0x00000671   0x10  Code  Lc  init_hw.o [3]
_bsp_flexbus_setup      0x0000056f  0x102  Code  Lc  init_hw.o [3]
_bsp_get_adc_base_address
                        0x0000a0e1   0x18  Code  Gb  adc_mk60.o [3]
_bsp_get_clock          0x0000193b   0x24  Code  Gb  bsp_cm.o [3]
_bsp_get_clock_configuration
                        0x00001933    0x8  Code  Gb  bsp_cm.o [3]
_bsp_get_edma_done_vectors
                        0x00007111   0x18  Code  Gb  edma_kinetisf.o [3]
_bsp_get_edma_error_vectors
                        0x00007129   0x16  Code  Gb  edma_kinetisf.o [3]
_bsp_get_esdhc_base_address
                        0x00009c45   0x12  Code  Gb  esdhc_mk60.o [3]
_bsp_get_hwticks        0x00003325   0x12  Code  Gb  init_bsp.o [3]
_bsp_get_i2c_base_address
                        0x00008119   0x20  Code  Gb  i2c_mk60.o [3]
_bsp_get_i2c_vector     0x00008141   0x20  Code  Gb  i2c_mk60.o [3]
_bsp_get_nfc_address    0x00021289    0x4  Code  Gb  nfc_k60f120m.o [3]
_bsp_get_sai_base_address
                        0x00024171   0x20  Code  Gb  sai_mk60.o [3]
_bsp_get_sai_rx_vector  0x000241b9   0x20  Code  Gb  sai_mk60.o [3]
_bsp_get_sai_tx_vector  0x00024199   0x20  Code  Gb  sai_mk60.o [3]
_bsp_get_serial_base_address
                        0x0000a085   0x5c  Code  Gb  serl_mk60.o [3]
_bsp_gpio_io_init       0x00001f4b   0x10  Code  Gb  init_gpio.o [3]
_bsp_i2c0_init          0x000284b8   0x14  Data  Gb  init_i2c.o [3]
_bsp_i2c_io_init        0x00001ee5   0x66  Code  Gb  init_gpio.o [3]
_bsp_initialize_hardware
                        0x00001a61    0x8  Code  Gb  bsp_cm.o [3]
_bsp_ksai_init          0x1fff0144   0x1c  Data  Gb  init_sai.o [3]
_bsp_low_level_init     0x00001a59    0x8  Code  Gb  bsp_cm.o [3]
_bsp_nandflash_init     0x000277f8   0x48  Data  Gb  init_nandflash.o [3]
_bsp_nandflash_io_init  0x00001f85   0xae  Code  Gb  init_gpio.o [3]
_bsp_nandflash_wl_init  0x000276b8   0x18  Data  Gb  nandflash_wl_init.o [6]
_bsp_osc_autotrim       0x00001a29   0x30  Code  Gb  bsp_cm.o [3]
_bsp_pdb_init           0x00028484   0x10  Data  Gb  init_adc.o [3]
_bsp_rtc_io_init        0x00001e67   0x14  Code  Gb  init_gpio.o [3]
_bsp_sai_init           0x00028568   0x1c  Data  Gb  init_sai.o [3]
_bsp_sai_io_init        0x00002033   0x54  Code  Gb  init_gpio.o [3]
_bsp_sci5_init          0x00028584   0x20  Data  Gb  init_sci.o [3]
_bsp_serial_io_init     0x00001a69  0x1ec  Code  Gb  init_gpio.o [3]
_bsp_serial_rts_init    0x00001f5b   0x2a  Code  Gb  init_gpio.o [3]
_bsp_set_clock_configuration
                        0x000018ff   0x34  Code  Gb  bsp_cm.o [3]
_bsp_systimer_callback  0x00003319    0xa  Code  Gb  init_bsp.o [3]
_bsp_watchdog_disable   0x00000555   0x1a  Code  Gb  init_hw.o [3]
_call_main              0x000004ed         Code  Gb  cmain.o [10]
_cfm                    0x00000400   0x10  Data  Gb  vectors.o [3]
_date_to_sec            0x000041af   0x7e  Code  Lc  krtc.o [3]
_dcache_enable          0x00004335   0x10  Code  Gb  cache.o [9]
_ecc_mode_threshold     0x1fff004c    0x8  Data  Lc  nfc_wl.o [6]
_esdhc_close            0x00005fbd   0x80  Code  Gb  esdhc.o [3]
_esdhc_init             0x00005cd5   0xa0  Code  Lc  esdhc.o [3]
_esdhc_install          0x00005e61   0x7a  Code  Gb  esdhc.o [3]
_esdhc_ioctl            0x0000603d  0x60c  Code  Gb  esdhc.o [3]
_esdhc_is_running       0x00005cb3   0x14  Code  Lc  esdhc.o [3]
_esdhc_open             0x00005f15   0xa6  Code  Gb  esdhc.o [3]
_esdhc_read             0x00006675  0x196  Code  Gb  esdhc.o [3]
_esdhc_send_command     0x00005d75   0xec  Code  Lc  esdhc.o [3]
_esdhc_set_baudrate     0x00005c19   0x9a  Code  Lc  esdhc.o [3]
_esdhc_status_wait      0x00005cc7    0xe  Code  Lc  esdhc.o [3]
_esdhc_uninstall        0x00005edd   0x36  Code  Gb  esdhc.o [3]
_esdhc_write            0x0000680d  0x19c  Code  Gb  esdhc.o [3]
_exit                   0x0000104d         Code  Gb  cexit.o [10]
_icache_enable          0x00004345   0x10  Code  Gb  cache.o [9]
_int_default_isr        0x00002945   0x3a  Code  Gb  int.o [9]
_int_disable            0x0000297f   0x22  Code  Gb  int.o [9]
_int_enable             0x000029a1   0x36  Code  Gb  int.o [9]
_int_get_default_isr    0x000029d7    0xc  Code  Gb  int.o [9]
_int_get_exception_handler
                        0x000029e3    0x6  Code  Gb  int.o [9]
_int_get_isr_data       0x000029e9   0x60  Code  Gb  int.o [9]
_int_init               0x00002b0d   0x6c  Code  Gb  int.o [9]
_int_install_isr        0x00002a49   0xc4  Code  Gb  int.o [9]
_int_kernel_isr         0x00025293          --   Gb  dispatch.o [9]
_int_set_vector_table   0x00003d41    0xe  Code  Gb  int_vtab.o [9]
_io_adc_install         0x00005615   0x72  Code  Gb  adc.o [3]
_io_cvt                 0x00013a85  0x2c4  Code  Gb  io_fp.o [9]
_io_dev_install         0x00009a8d   0x3a  Code  Gb  io_inst.o [9]
_io_dev_install_ext     0x00009b45  0x100  Code  Gb  io_instx.o [9]
_io_dev_uninstall       0x0000c01d   0x8c  Code  Gb  io_uinst.o [9]
_io_doprint             0x0000d11b  0xcf8  Code  Gb  io_dopr.o [9]
_io_doprint_prt         0x0000de1d   0xa8  Code  Gb  io_dopr.o [9]
_io_doprint_prt64       0x0000dec5   0xfc  Code  Gb  io_dopr.o [9]
_io_dtoa                0x00013de5   0x46  Code  Gb  io_fp.o [9]
_io_dtoe                0x00013e2b  0x136  Code  Gb  io_fp.o [9]
_io_dtof                0x00013f61  0x174  Code  Gb  io_fp.o [9]
_io_dtog                0x000140d5  0x2fa  Code  Gb  io_fp.o [9]
_io_fclose              0x0000a81f   0x36  Code  Gb  io_fclos.o [9]
_io_ferror              0x0000c00d   0x10  Code  Gb  io_ferr.o [9]
_io_fflush              0x000139a5   0x3a  Code  Gb  io_fflsh.o [9]
_io_fgetc               0x0001a149   0x50  Code  Gb  io_fgetc.o [9]
_io_fgetline            0x00016dc5   0xa2  Code  Gb  io_fgetl.o [9]
_io_fgets               0x000139df   0x34  Code  Gb  io_fgets.o [9]
_io_fopen               0x00009c5d   0xc8  Code  Gb  io_fopen.o [9]
_io_fputc               0x0001e9ad   0x44  Code  Gb  io_fputc.o [9]
_io_fseek               0x0000f171   0xc0  Code  Gb  io_fseek.o [9]
_io_fungetc             0x0001a199   0x30  Code  Gb  io_fung.o [9]
_io_get_dev_for_path    0x0000e6a9   0x8c  Code  Gb  io_util.o [9]
_io_get_first_valid_fs  0x0000e565   0x2a  Code  Gb  io_util.o [9]
_io_get_fs_by_name      0x0000e513   0x52  Code  Gb  io_util.o [9]
_io_get_fs_name         0x0000e5bb   0x58  Code  Gb  io_util.o [9]
_io_get_handle          0x0000d025   0x50  Code  Gb  io_ghand.o [9]
_io_i2c_int_close       0x00008265   0x42  Code  Gb  i2c_int.o [3]
_io_i2c_int_install     0x00008161   0x7c  Code  Gb  i2c_int.o [3]
_io_i2c_int_ioctl       0x000082f1   0x52  Code  Gb  i2c_int.o [3]
_io_i2c_int_open        0x0000820d   0x58  Code  Gb  i2c_int.o [3]
_io_i2c_int_read        0x000082a9   0x22  Code  Gb  i2c_int.o [3]
_io_i2c_int_uninstall   0x000081dd   0x2e  Code  Gb  i2c_int.o [3]
_io_i2c_int_write       0x000082cd   0x22  Code  Gb  i2c_int.o [3]
_io_i2c_polled_close    0x00008049   0x34  Code  Gb  i2c_pol.o [3]
_io_i2c_polled_install  0x00007f3d   0x7c  Code  Gb  i2c_pol.o [3]
_io_i2c_polled_ioctl    0x000080c5   0x52  Code  Gb  i2c_pol.o [3]
_io_i2c_polled_open     0x00007fe9   0x5e  Code  Gb  i2c_pol.o [3]
_io_i2c_polled_read     0x0000807d   0x22  Code  Gb  i2c_pol.o [3]
_io_i2c_polled_uninstall
                        0x00007fb9   0x2e  Code  Gb  i2c_pol.o [3]
_io_i2c_polled_write    0x000080a1   0x22  Code  Gb  i2c_pol.o [3]
_io_inf_or_nan          0x00013d59   0x8c  Code  Lc  io_fp.o [9]
_io_init                0x00003f71   0x24  Code  Gb  io_init.o [9]
_io_ioctl               0x0000a7c5   0x5a  Code  Gb  io_ioctl.o [9]
_io_is_fs_valid         0x0000e58f   0x2c  Code  Gb  io_util.o [9]
_io_mfs_close           0x0000ab85   0x28  Code  Gb  mfs_init.o [8]
_io_mfs_dir_close       0x0001f629   0x18  Code  Gb  dir_read.o [8]
_io_mfs_dir_open        0x0001f251   0xee  Code  Gb  dir_read.o [8]
_io_mfs_dir_read        0x0001f33f  0x2ca  Code  Gb  dir_read.o [8]
_io_mfs_install         0x0000a855   0xa4  Code  Gb  mfs_init.o [8]
_io_mfs_ioctl           0x0000ac29  0x7c2  Code  Gb  mfs_init.o [8]
_io_mfs_open            0x0000a93d  0x246  Code  Gb  mfs_init.o [8]
_io_mfs_read            0x0000abad   0x44  Code  Gb  mfs_init.o [8]
_io_mfs_uninstall_internal
                        0x0000a905   0x36  Code  Lc  mfs_init.o [8]
_io_mfs_write           0x0000abf1   0x38  Code  Gb  mfs_init.o [8]
_io_mputc               0x0000d075   0x44  Code  Lc  io_dopr.o [9]
_io_nandflash_wl_close  0x0000c2e9   0x40  Code  Gb  nandflash_wl.o [6]
_io_nandflash_wl_install
                        0x0000c0a9  0x100  Code  Gb  nandflash_wl.o [6]
_io_nandflash_wl_internal_erase
                        0x0000cb67   0x12  Code  Gb  nandflash_wl.o [6]
_io_nandflash_wl_internal_read_metadata
                        0x0000caa5   0xa4  Code  Gb  nandflash_wl.o [6]
_io_nandflash_wl_internal_read_raw
                        0x0000c3a1   0xa8  Code  Gb  nandflash_wl.o [6]
_io_nandflash_wl_internal_read_with_metadata
                        0x0000c9ed   0xb8  Code  Gb  nandflash_wl.o [6]
_io_nandflash_wl_internal_repair
                        0x0000cb51   0x16  Code  Gb  nandflash_wl.o [6]
_io_nandflash_wl_internal_write_raw
                        0x0000c4c1   0xba  Code  Gb  nandflash_wl.o [6]
_io_nandflash_wl_internal_write_with_metadata
                        0x0000c57b   0xba  Code  Gb  nandflash_wl.o [6]
_io_nandflash_wl_ioctl  0x0000c635  0x3b8  Code  Gb  nandflash_wl.o [6]
_io_nandflash_wl_open   0x0000c1c9  0x120  Code  Gb  nandflash_wl.o [6]
_io_nandflash_wl_read   0x0000c329   0x78  Code  Gb  nandflash_wl.o [6]
_io_nandflash_wl_uninstall
                        0x0000c1a9   0x20  Code  Gb  nandflash_wl.o [6]
_io_nandflash_wl_write  0x0000c449   0x78  Code  Gb  nandflash_wl.o [6]
_io_printf              0x0000a799   0x2c  Code  Gb  io_pntf.o [9]
_io_putstr              0x0000d0b9   0x62  Code  Lc  io_dopr.o [9]
_io_read                0x000152d1   0x86  Code  Gb  io_read.o [9]
_io_register_file_system
                        0x0000e613   0x4e  Code  Gb  io_util.o [9]
_io_rel2abs             0x0000e735  0x138  Code  Gb  io_util.o [9]
_io_sai_int_close       0x00006b11   0x4e  Code  Gb  sai_int.o [3]
_io_sai_int_install     0x000069a9   0x64  Code  Gb  sai_int.o [3]
_io_sai_int_ioctl       0x00006bd1   0x52  Code  Gb  sai_int.o [3]
_io_sai_int_open        0x00006a49   0xc4  Code  Gb  sai_int.o [3]
_io_sai_int_read        0x00006b61   0x36  Code  Gb  sai_int.o [3]
_io_sai_int_uninstall   0x00006a0d   0x3c  Code  Gb  sai_int.o [3]
_io_sai_int_write       0x00006b99   0x36  Code  Gb  sai_int.o [3]
_io_serial_default_init
                        0x00006c29   0x38  Code  Gb  io_sinit.o [3]
_io_serial_int_addc     0x00007857  0x104  Code  Gb  serl_int.o [3]
_io_serial_int_close    0x00007499   0x7a  Code  Gb  serl_int.o [3]
_io_serial_int_install  0x0000723d   0x7c  Code  Gb  serl_int.o [3]
_io_serial_int_ioctl    0x000076b5  0x11a  Code  Gb  serl_int.o [3]
_io_serial_int_nextc    0x0000795b   0xa0  Code  Gb  serl_int.o [3]
_io_serial_int_open     0x000072b9  0x1de  Code  Gb  serl_int.o [3]
_io_serial_int_putc_internal
                        0x000077cf   0x88  Code  Gb  serl_int.o [3]
_io_serial_int_read     0x00007515  0x14a  Code  Gb  serl_int.o [3]
_io_serial_int_write    0x00007661   0x54  Code  Gb  serl_int.o [3]
_io_snprintf            0x00014c99   0x30  Code  Gb  io_spr.o [9]
_io_sprintf             0x00014c6d   0x2c  Code  Gb  io_spr.o [9]
_io_sputc               0x00014cc9    0xa  Code  Gb  io_spr.o [9]
_io_strtolower          0x0000e4e5   0x2e  Code  Gb  io_util.o [9]
_io_unregister_file_system
                        0x0000e661   0x44  Code  Gb  io_util.o [9]
_io_write               0x0001529f   0x32  Code  Gb  io_write.o [9]
_is_leap_year           0x0000416b   0x44  Code  Lc  krtc.o [3]
_ki2c_int_deinit        0x00004fed   0x5c  Code  Gb  i2c_int_ki2c.o [3]
_ki2c_int_init          0x00004f2d   0xbe  Code  Gb  i2c_int_ki2c.o [3]
_ki2c_int_install       0x00004f01   0x26  Code  Gb  i2c_int_ki2c.o [3]
_ki2c_int_rx            0x00005049  0x118  Code  Gb  i2c_int_ki2c.o [3]
_ki2c_int_tx            0x00005161  0x10e  Code  Gb  i2c_int_ki2c.o [3]
_ki2c_isr               0x00005271  0x3a4  Code  Lc  i2c_int_ki2c.o [3]
_ki2c_polled_deinit     0x00004725   0x3a  Code  Gb  i2c_pol_ki2c.o [3]
_ki2c_polled_init       0x00004635   0xf0  Code  Gb  i2c_pol_ki2c.o [3]
_ki2c_polled_install    0x0000460d   0x28  Code  Gb  i2c_pol_ki2c.o [3]
_ki2c_polled_ioctl      0x00004761  0x31a  Code  Gb  i2c_pol_ki2c.o [3]
_ki2c_polled_rx         0x00004a89   0xba  Code  Gb  i2c_pol_ki2c.o [3]
_ki2c_polled_rx_tx      0x00004bfb  0x306  Code  Lc  i2c_pol_ki2c.o [3]
_ki2c_polled_tx         0x00004b45   0xb6  Code  Gb  i2c_pol_ki2c.o [3]
_ki2c_set_baudrate      0x000045a9   0x64  Code  Lc  i2c_pol_ki2c.o [3]
_ki2s_find_mclk_freq_div
                        0x00023ca7   0xca  Code  Lc  sai_int_ksai.o [3]
_ki2s_get_mclk_value    0x00023c6f   0x38  Code  Lc  sai_int_ksai.o [3]
_ki2s_set_bclk_mode     0x000240ab   0xc6  Code  Lc  sai_int_ksai.o [3]
_ki2s_set_master_mode   0x00023d71  0x1c8  Code  Lc  sai_int_ksai.o [3]
_ki2s_set_slave_mode    0x00023f39  0x172  Code  Lc  sai_int_ksai.o [3]
_kinetis_mpu_disable    0x00003d55   0x10  Code  Gb  kinetis_mpu.o [9]
_ksai_format_in_data    0x00023b51   0xae  Code  Lc  sai_int_ksai.o [3]
_ksai_format_out_data   0x00023bff   0x70  Code  Lc  sai_int_ksai.o [3]
_ksai_hw_init           0x000238b9  0x28e  Code  Lc  sai_int_ksai.o [3]
_ksai_int_deinit        0x0002297d  0x158  Code  Gb  sai_int_ksai.o [3]
_ksai_int_init          0x00022679  0x304  Code  Gb  sai_int_ksai.o [3]
_ksai_int_ioctl         0x0002307b  0x83e  Code  Gb  sai_int_ksai.o [3]
_ksai_int_rx            0x00022c2f  0x13e  Code  Gb  sai_int_ksai.o [3]
_ksai_int_tx            0x00022ad5  0x15a  Code  Gb  sai_int_ksai.o [3]
_ksai_rx_irq_handler    0x00022ef9  0x148  Code  Lc  sai_int_ksai.o [3]
_ksai_rx_tx_irq_handler
                        0x00023041   0x3a  Code  Lc  sai_int_ksai.o [3]
_ksai_tx_irq_handler    0x00022d6d  0x18a  Code  Lc  sai_int_ksai.o [3]
_kuart_change_baudrate  0x000079fd   0x64  Code  Gb  serl_pol_kuart.o [3]
_kuart_int_deinit       0x00004415   0x1e  Code  Gb  serl_int_kuart.o [3]
_kuart_int_enable       0x00004435   0x36  Code  Gb  serl_int_kuart.o [3]
_kuart_int_err_isr      0x0000446d   0x5a  Code  Gb  serl_int_kuart.o [3]
_kuart_int_init         0x000043a5   0x6e  Code  Gb  serl_int_kuart.o [3]
_kuart_int_install      0x00004375   0x2c  Code  Gb  serl_int_kuart.o [3]
_kuart_int_peripheral_disable
                        0x0000436b    0xa  Code  Lc  serl_int_kuart.o [3]
_kuart_int_peripheral_enable
                        0x00004361    0xa  Code  Lc  serl_int_kuart.o [3]
_kuart_int_putc         0x00004585   0x24  Code  Gb  serl_int_kuart.o [3]
_kuart_int_rx_tx_isr    0x000044c9   0xba  Code  Gb  serl_int_kuart.o [3]
_kuart_polled_deinit    0x00007b75   0x30  Code  Gb  serl_pol_kuart.o [3]
_kuart_polled_init      0x00007a75   0xfe  Code  Gb  serl_pol_kuart.o [3]
_kuart_polled_ioctl     0x00007ba5  0x398  Code  Gb  serl_pol_kuart.o [3]
_kuart_polled_peripheral_disable
                        0x00007a6b    0xa  Code  Lc  serl_pol_kuart.o [3]
_kuart_polled_peripheral_enable
                        0x00007a61    0xa  Code  Lc  serl_pol_kuart.o [3]
_lwevent_set            0x0000a0f9   0xfc  Code  Gb  lwevent.o [9]
_lwmem_alloc            0x0000091b   0x20  Code  Gb  lwmem.o [9]
_lwmem_alloc_at         0x0000093b   0x26  Code  Gb  lwmem.o [9]
_lwmem_alloc_at_internal
                        0x000007d5  0x146  Code  Gb  lwmem.o [9]
_lwmem_alloc_from       0x0000096f   0x20  Code  Gb  lwmem.o [9]
_lwmem_alloc_internal   0x000006b9  0x11c  Code  Gb  lwmem.o [9]
_lwmem_alloc_system     0x00000bf9   0x22  Code  Gb  lwmem.o [9]
_lwmem_alloc_system_from
                        0x00000bd7   0x22  Code  Gb  lwmem.o [9]
_lwmem_alloc_system_zero
                        0x00000d15   0x20  Code  Gb  lwmem.o [9]
_lwmem_alloc_system_zero_from
                        0x00000cf5   0x20  Code  Gb  lwmem.o [9]
_lwmem_alloc_zero       0x0000098f   0x20  Code  Gb  lwmem.o [9]
_lwmem_alloc_zero_from  0x000009af   0x20  Code  Gb  lwmem.o [9]
_lwmem_create_pool      0x000009cf   0x84  Code  Gb  lwmem.o [9]
_lwmem_create_pool_mapped
                        0x00000a53   0x30  Code  Gb  lwmem.o [9]
_lwmem_free             0x00000a83  0x154  Code  Gb  lwmem.o [9]
_lwmem_get_next_block_internal
                        0x00000c43   0x90  Code  Gb  lwmem.o [9]
_lwmem_get_system_pool_id
                        0x00000961    0xe  Code  Gb  lwmem.o [9]
_lwmem_init_internal    0x00000c1b   0x28  Code  Gb  lwmem.o [9]
_lwmem_set_type         0x00000cd3   0x16  Code  Gb  lwmem.o [9]
_lwmem_transfer_internal
                        0x00000ce9    0xc  Code  Gb  lwmem.o [9]
_lwsem_create           0x00002efd   0x14  Code  Gb  lwsem.o [9]
_lwsem_create_internal  0x00002e99   0x64  Code  Gb  lwsem.o [9]
_lwsem_destroy          0x00002fd5    0xe  Code  Gb  lwsem.o [9]
_lwsem_destroy_internal
                        0x00002f11   0xc4  Code  Gb  lwsem.o [9]
_lwsem_post             0x00002fe3   0x7c  Code  Gb  lwsem.o [9]
_lwsem_wait             0x0000305f   0x76  Code  Gb  lwsem.o [9]
_lwsem_wait_timed_internal
                        0x000030d5   0x3e  Code  Gb  lwsem.o [9]
_lwsem_wait_until       0x00003113   0x6e  Code  Gb  lwsem.o [9]
_main                   0x000004f3         Code  Gb  cmain.o [10]
_mem_test_and_set       0x00025391          --   Gb  dispatch.o [9]
_mfs_partition_destroy  0x0000bb99    0xc  Code  Gb  mfs_init.o [8]
_mfs_validate_device    0x00012f51   0xac  Code  Gb  mfs_valdev.o [8]
_mqx                    0x00000d3d  0x1b6  Code  Gb  mqx.o [9]
_mqx_api_call           0x00025149          --   Gb  dispatch.o [9]
_mqx_exit               0x00000ef3    0xe  Code  Gb  mqx.o [9]
_mqx_idle_task          0x00021d55   0x4c  Code  Gb  idletask.o [9]
_mqx_init_kernel_data_internal
                        0x00000f55   0xda  Code  Gb  mqx.o [9]
_mqx_kernel_data        0x1fff0054    0x4  Data  Gb  mqx.o [9]
_mqx_set_cpu_type       0x00000f01    0xa  Code  Gb  mqx.o [9]
_mqx_set_io_component_handle
                        0x00000f0b   0x4a  Code  Gb  mqx.o [9]
_mqx_system_stack       0x1fff0764    0x4  Data  Gb  mqx.o [9]
_mqx_vendor             0x00027b3c    0x4  Data  Gb  mqx.o [9]
_mqx_version_number     0x00027b38    0x4  Data  Gb  mqx.o [9]
_mqx_zero_tick_struct   0x00027b2c    0xc  Data  Gb  mqx.o [9]
_mutatr_init            0x00015659   0x26  Code  Gb  mutex.o [9]
_mutex_cleanup          0x000159ad   0x4e  Code  Gb  mutex.o [9]
_mutex_create_component
                        0x0001567f   0x6a  Code  Gb  mutex.o [9]
_mutex_destroy          0x000156e9   0xbc  Code  Gb  mutex.o [9]
_mutex_init             0x000157a5   0xc6  Code  Gb  mutex.o [9]
_mutex_lock             0x0001586b  0x142  Code  Gb  mutex.o [9]
_mutex_unlock           0x000159fb   0xbe  Code  Gb  mutex.o [9]
_nvic_int_disable       0x0000720f   0x2a  Code  Gb  nvic.o [9]
_nvic_int_enable        0x000071e9   0x26  Code  Gb  nvic.o [9]
_nvic_int_init          0x00007179   0x70  Code  Gb  nvic.o [9]
_opened_fs_table        0x1fff0728   0x30  Data  Lc  io_util.o [9]
_parse_next_filename    0x0000e86d   0x40  Code  Lc  io_util.o [9]
_partition_alloc_internal
                        0x0000dfd5  0x128  Code  Gb  partition.o [9]
_partition_alloc_system_zero
                        0x0000e407   0x34  Code  Gb  partition.o [9]
_partition_cleanup      0x0000e43d   0x9e  Code  Gb  partition.o [9]
_partition_create       0x0000e211   0x94  Code  Gb  partition.o [9]
_partition_create_component
                        0x0000e0fd   0x76  Code  Gb  partition.o [9]
_partition_create_internal
                        0x0000e173   0x9e  Code  Gb  partition.o [9]
_partition_destroy      0x0000e2a5   0x92  Code  Gb  partition.o [9]
_partition_extend_internal
                        0x0000e337   0x5a  Code  Gb  partition.o [9]
_partition_free         0x0000e391   0x76  Code  Gb  partition.o [9]
_pend_svc               0x000251c5          --   Gb  dispatch.o [9]
_psp_add_element_to_array
                        0x0001e463   0x4c  Code  Gb  psp_mat3.o [9]
_psp_add_ticks          0x00006ce5   0x54  Code  Gb  psp_tiad.o [9]
_psp_build_float_context
                        0x000035d5   0x36  Code  Gb  stack_bu.o [9]
_psp_build_stack_frame  0x00003545   0x8a  Code  Gb  stack_bu.o [9]
_psp_destroy_stack_frame
                        0x00003543    0x2  Code  Gb  stack_de.o [9]
_psp_div_128_by_32      0x0001e4af   0xf4  Code  Gb  psp_mat2.o [9]
_psp_exception_return   0x00025325          --   Gb  dispatch.o [9]
_psp_init_readyqs       0x00002e21   0x6c  Code  Gb  sc_irdyq.o [9]
_psp_int_init           0x00003d25   0x1c  Code  Gb  psp_iinit.o [9]
_psp_int_install        0x000070fd   0x14  Code  Gb  int_inst.o [9]
_psp_msecs_to_ticks     0x00006c61   0x84  Code  Gb  psp_msti.o [9]
_psp_msecs_to_ticks_quick
                        0x00006ead   0x88  Code  Gb  psp_mstiq.o [9]
_psp_mul_128_by_32      0x0001e371   0xf2  Code  Gb  psp_mat1.o [9]
_psp_normalize_ticks    0x00006fd9   0x38  Code  Gb  psp_tinm.o [9]
_psp_pop_fp_context     0x00000435          --   Gb  support.o [9]
_psp_push_fp_context    0x00000421          --   Gb  support.o [9]
_psp_save_fp_context_internal
                        0x0002535d          --   Gb  dispatch.o [9]
_psp_seconds_to_ticks   0x00009e59   0x20  Code  Gb  psp_seti.o [9]
_psp_set_kernel_disable_level
                        0x00002dc1   0x60  Code  Gb  sc_irdyq.o [9]
_psp_subtract_ticks     0x00006f35   0x44  Code  Gb  psp_tisu.o [9]
_psp_ticks_to_microseconds
                        0x0001e2f9   0x12  Code  Gb  psp_tius.o [9]
_psp_ticks_to_seconds   0x00006f7d   0x5c  Code  Gb  psp_tise.o [9]
_psp_ticks_to_time      0x00007011   0xa4  Code  Gb  psp_tkti.o [9]
_psp_time_to_ticks      0x000070b5   0x26  Code  Gb  psp_tiol.o [9]
_queue_dequeue          0x00002be7   0x34  Code  Gb  queue.o [9]
_queue_enqueue          0x00002ba7   0x40  Code  Gb  queue.o [9]
_queue_head             0x00002c1b   0x22  Code  Gb  queue.o [9]
_queue_init             0x00002b9b    0xc  Code  Gb  queue.o [9]
_queue_insert           0x00002c3d   0x42  Code  Gb  queue.o [9]
_queue_is_empty         0x00002d35   0x10  Code  Gb  queue.o [9]
_queue_next             0x00002c7f   0x26  Code  Gb  queue.o [9]
_queue_test             0x00002ca5   0x6e  Code  Gb  queue.o [9]
_queue_unlink           0x00002d13   0x22  Code  Gb  queue.o [9]
_rtc_get_time           0x00004245    0x8  Code  Gb  krtc.o [3]
_rtc_init               0x00003faf   0xe4  Code  Gb  krtc.o [3]
_rtc_isr                0x00004095   0xd6  Code  Gb  krtc.o [3]
_rtc_set_time           0x0000422d   0x18  Code  Gb  krtc.o [3]
_rtc_sync_with_mqx      0x000042eb   0x4a  Code  Gb  krtc.o [3]
_rtc_time_from_mqx_date
                        0x000042db   0x10  Code  Gb  krtc.o [3]
_rtc_time_to_mqx_date   0x000042c1   0x1a  Code  Gb  krtc.o [3]
_rtc_update_TAR         0x0000424d   0x4e  Code  Lc  krtc.o [3]
_rtc_wait_ms            0x00003f95   0x1a  Code  Lc  krtc.o [3]
_sched_boost_priority_internal
                        0x00006d65   0x28  Code  Gb  sched.o [9]
_sched_check_scheduler_internal
                        0x00025129          --   Gb  dispatch.o [9]
_sched_execute_scheduler_internal
                        0x00025145          --   Gb  dispatch.o [9]
_sched_get_max_priority_on_q_internal
                        0x00006e09   0x30  Code  Gb  sched.o [9]
_sched_insert_priorityq_internal
                        0x00006dc9   0x40  Code  Gb  sched.o [9]
_sched_run_internal     0x00025125          --   Gb  dispatch.o [9]
_sched_set_priority_internal
                        0x00006e39   0x70  Code  Gb  sched.o [9]
_sched_start_internal   0x00025121          --   Gb  dispatch.o [9]
_sched_unboost_priority_internal
                        0x00006d8d   0x3c  Code  Gb  sched.o [9]
_sched_yield            0x00006d39   0x2c  Code  Gb  sched.o [9]
_strnlen                0x00015283   0x1c  Code  Gb  strnlen.o [9]
_svc_handler            0x0002514f          --   Gb  dispatch.o [9]
_task_alloc_td_internal
                        0x00002825  0x102  Code  Gb  task.o [9]
_task_block             0x0002514b          --   Gb  dispatch.o [9]
_task_build_internal    0x000025a9   0x8c  Code  Gb  task.o [9]
_task_create            0x00002171   0x18  Code  Gb  task.o [9]
_task_create_blocked    0x00002189   0x84  Code  Gb  task.o [9]
_task_create_internal   0x000020e1   0x90  Code  Gb  task.o [9]
_task_destroy           0x000024a5    0xe  Code  Gb  task.o [9]
_task_destroy_internal  0x0000220d  0x298  Code  Gb  task.o [9]
_task_exit_function_internal
                        0x00002635   0x22  Code  Gb  task.o [9]
_task_fill_stack_internal
                        0x000027dd   0x14  Code  Gb  task.o [9]
_task_get_error         0x000024fd   0x18  Code  Gb  task.o [9]
_task_get_td            0x00002515   0x56  Code  Gb  task.o [9]
_task_init_internal     0x00002657  0x186  Code  Gb  task.o [9]
_task_ready             0x000024b3   0x4a  Code  Gb  task.o [9]
_task_ready_internal    0x000027f1   0x2a  Code  Gb  task.o [9]
_task_set_error         0x0000256b   0x36  Code  Gb  task.o [9]
_task_set_error_td_internal
                        0x00002931   0x12  Code  Gb  task.o [9]
_task_sync_priority_internal
                        0x00002821    0x4  Code  Gb  task.o [9]
_taskq_create           0x00009e79   0x7e  Code  Gb  taskq.o [9]
_taskq_destroy          0x00009ef7   0x8a  Code  Gb  taskq.o [9]
_taskq_resume           0x00009fff   0x7c  Code  Gb  taskq.o [9]
_taskq_suspend          0x00009f81   0x7e  Code  Gb  taskq.o [9]
_time_add_msec_to_ticks
                        0x00003681   0x20  Code  Gb  time.o [9]
_time_check_if_leap     0x00003bb3   0x4c  Code  Gb  time.o [9]
_time_days_in_month_internal
                        0x00027dd4   0x1c  Data  Gb  time_tables.o [9]
_time_delay             0x000036a1   0x54  Code  Gb  time.o [9]
_time_delay_internal    0x000036f5   0x96  Code  Gb  time.o [9]
_time_diff_seconds      0x000037b1   0x20  Code  Gb  time.o [9]
_time_diff_ticks        0x0000378b   0x26  Code  Gb  time.o [9]
_time_from_date         0x00003811  0x19e  Code  Gb  time.o [9]
_time_get               0x000039af   0x16  Code  Gb  time.o [9]
_time_get_elapsed_ticks
                        0x000037d1   0x40  Code  Gb  time.o [9]
_time_get_ticks         0x000039d3   0x4c  Code  Gb  time.o [9]
_time_get_ticks_per_sec
                        0x000039c5    0xe  Code  Gb  time.o [9]
_time_init_ticks        0x00003a1f   0x3c  Code  Gb  time.o [9]
_time_notify_kernel     0x00003a5b  0x104  Code  Gb  time.o [9]
_time_secs_before_month_internal
                        0x00027df0   0x68  Data  Gb  time_tables.o [9]
_time_secs_before_year_internal
                        0x00027e58  0x20c  Data  Gb  time_tables.o [9]
_time_set               0x00003b5f   0x54  Code  Gb  time.o [9]
_time_set_hwtick_function
                        0x00003c0b   0x10  Code  Gb  time.o [9]
_time_set_hwticks_per_tick
                        0x00003c1b    0xc  Code  Gb  time.o [9]
_time_set_ticks_per_sec
                        0x00003bff    0xc  Code  Gb  time.o [9]
_time_to_date           0x00003c27   0xd6  Code  Gb  time.o [9]
_timer_alloc_id_internal
                        0x00016169   0x66  Code  Gb  timer.o [9]
_timer_cancel           0x00015b2d   0xd8  Code  Gb  timer.o [9]
_timer_cleanup          0x000161d1   0xb2  Code  Gb  timer.o [9]
_timer_create_component
                        0x00015c47   0xf6  Code  Gb  timer.o [9]
_timer_find_entry_internal
                        0x00015c05   0x42  Code  Gb  timer.o [9]
_timer_insert_queue_internal
                        0x0001610d   0x5c  Code  Gb  timer.o [9]
_timer_isr              0x00016049   0xbe  Code  Gb  timer.o [9]
_timer_start_oneshot_after
                        0x00015ea5   0x3c  Code  Gb  timer.o [9]
_timer_start_oneshot_after_internal
                        0x00015d3d  0x168  Code  Gb  timer.o [9]
_timer_task             0x00015ee1  0x166  Code  Gb  timer.o [9]
_timer_test             0x00016289   0xc6  Code  Gb  timer.o [9]
abort                   0x0001a34d    0x6  Code  Gb  abort.o [4]
adc_address             0x00029ccc   0x10  Data  Lc  adc_mk60.o [3]
adc_bundle              0x1fff0a1c    0x4  Data  Gb  adc_kadc.o [3]
adc_calibrate           0x00008d4d   0xb8  Code  Lc  adc_kadc.o [3]
adc_complete_isr        0x00008d21   0x2c  Code  Lc  adc_kadc.o [3]
adc_get_calibration_data
                        0x00008e05   0x6a  Code  Lc  adc_kadc.o [3]
adc_internal            0x1fff09f8   0x24  Data  Lc  adc_kadc.o [3]
adc_process_all_data    0x00008ccd   0x34  Code  Gb  adc_kadc.o [3]
adc_process_data        0x00008c15   0xb8  Code  Lc  adc_kadc.o [3]
adc_set_calibration_data
                        0x00008e6f   0x6a  Code  Lc  adc_kadc.o [3]
adt_idelay_isr          0x00009a21   0x44  Code  Lc  adt_kpdb.o [3]
adt_period_prescaler    0x0000921d  0x1f6  Code  Lc  adt_kpdb.o [3]
alarm_time              0x1fff0820    0x4  Data  Lc  krtc.o [3]
auto_free<char>::auto_free(char *)
                        0x00022141    0x4  Code  Gb  ddi_nand_media_get_info.o [6]
auto_free<char>::free()
                        0x00022157   0x18  Code  Gb  ddi_nand_media_get_info.o [6]
auto_free<char>::operator char *()
                        0x00022145    0x4  Code  Gb  ddi_nand_media_get_info.o [6]
auto_free<char>::reset()
                        0x0002216f    0x6  Code  Gb  ddi_nand_media_get_info.o [6]
auto_free<char>::~auto_free()
                        0x00022149    0xe  Code  Gb  ddi_nand_media_get_info.o [6]
countBits               0x0001d143   0x22  Code  Gb  wl_common.o [6]
count_ones_16(unsigned int)
                        0x0001a83d   0x2e  Code  Gb  phy_map.o [6]
count_ones_32(unsigned int)
                        0x0001a86b   0x16  Code  Gb  phy_map.o [6]
curr_ecc_mode           0x1fff075c    0x4  Data  Lc  nfc_wl.o [6]
ddi_ldl_shutdown_media_drives(unsigned int)
                        0x00013395   0x94  Code  Lc  ddi_ldl_write.o [6]
dma_init                0x00003f3b   0x1e  Code  Gb  edma.o [3]
dmamux_base             0x1fff0164    0x8  Data  Gb  edma.o [3]
edma_base               0x1fff0160    0x4  Data  Gb  edma.o [3]
edma_channel_context    0x1fff0834  0x180  Data  Lc  edma.o [3]
edma_done_isr           0x00003d69   0x8e  Code  Lc  edma.o [3]
edma_done_vectors       0x000290f8   0x40  Data  Lc  edma_kinetisf.o [3]
edma_err_isr            0x00003df7   0x86  Code  Lc  edma.o [3]
edma_error_vectors      0x00029138    0x4  Data  Lc  edma_kinetisf.o [3]
edma_init_module        0x00003e7d   0xbe  Code  Lc  edma.o [3]
error_code              0x1fff0710    0x4  Data  Gb  demo.o [1]
exit                    0x00000551    0x4  Code  Gb  exit.o [4]
filesystem_handle       0x1fff0718    0x4  Data  Gb  demo.o [1]
filesystem_name         0x1fff0040    0x4  Data  Gb  demo.o [1]
format_table            0x1fff0058   0xd0  Data  Lc  mfs_format.o [8]
free                    0x0000050d    0xc  Code  Gb  comp.o [9]
g_NANDThreadSafeMutex   0x1fff09c8   0x30  Data  Gb  ddi_nand_media_definition.o [6]
g_bFrameworkExternalDriveOrFsInit
                        0x1fff0768    0x4  Data  Gb  ddi_ldl_init.o [6]
g_ldlInfo               0x1fff076c   0x30  Data  Gb  ddi_ldl_init.o [6]
g_mediaBufferManagerContext
                        0x1fff02f8  0x418  Data  Gb  media_buffer_manager.o [6]
g_nandHalContext        0x1fff07b4   0x68  Data  Gb  ddi_nand_hal_globals.o [6]
g_nandHalFDPTR          0x1fff081c    0x4  Data  Gb  ddi_nand_hal_globals.o [6]
g_nandMedia             0x1fff07b0    0x4  Data  Gb  ddi_nand_media_init.o [6]
g_nandZipConfigBlockInfo
                        0x1fff016c  0x144  Data  Gb  ddi_nand_media_definition.o [6]
g_nfc_log_enable        0x1fff0758    0x4  Data  Gb  nfc_wl.o [6]
hwtimer_callback_reg    0x00003529   0x1a  Code  Gb  hwtimer.o [3]
hwtimer_deinit          0x000033fd   0x6e  Code  Gb  hwtimer.o [3]
hwtimer_get_modulo      0x000034eb    0xe  Code  Gb  hwtimer.o [3]
hwtimer_get_time        0x000034f9   0x30  Code  Gb  hwtimer.o [3]
hwtimer_init            0x000033a9   0x54  Code  Gb  hwtimer.o [3]
hwtimer_set_freq        0x0000346b   0x58  Code  Gb  hwtimer.o [3]
hwtimer_start           0x000034c3   0x28  Code  Gb  hwtimer.o [3]
hwtimer_systick_deinit  0x00021e41   0x28  Code  Lc  hwtimer_systick.o [3]
hwtimer_systick_get_time
                        0x00021ead   0x3c  Code  Lc  hwtimer_systick.o [3]
hwtimer_systick_init    0x00021dd7   0x6a  Code  Lc  hwtimer_systick.o [3]
hwtimer_systick_isr     0x00021da1   0x36  Code  Lc  hwtimer_systick.o [3]
hwtimer_systick_set_div
                        0x00021e69   0x24  Code  Lc  hwtimer_systick.o [3]
hwtimer_systick_start   0x00021e8d   0x10  Code  Lc  hwtimer_systick.o [3]
hwtimer_systick_stop    0x00021e9d   0x10  Code  Lc  hwtimer_systick.o [3]
init_hardware           0x00000681   0x16  Code  Gb  init_hw.o [3]
isalpha                 0x0001a1c9    0xc  Code  Gb  io_util.o [9]
isdigit                 0x00013a2f   0x12  Code  Gb  sh_util.o [12]
isgraph                 0x00013a13   0x1c  Code  Gb  io_util.o [9]
isprint                 0x00016e67   0x2a  Code  Gb  io_util.o [9]
ispunct                 0x0001a1d5    0xc  Code  Gb  io_util.o [9]
isupper                 0x000143cf    0xc  Code  Gb  io_util.o [9]
kNumBitsHighForAnIndex  0x000296f0   0x10  Data  Lc  phy_map.o [6]
lower_hex_string        0x00027d98   0x14  Data  Lc  io_dopr.o [9]
main                    0x00000541   0x10  Code  Gb  mqx_main.o [3]
malloc                  0x00000501    0xc  Code  Gb  comp.o [9]
media_buffer_acquire    0x0001661b  0x2aa  Code  Gb  media_buffer_manager.o [6]
media_buffer_add_internal(_media_buffer_type, unsigned int, unsigned int, unsigned char *, unsigned char *, unsigned int *)
                        0x00016389  0x15a  Code  Lc  media_buffer_manager.o [6]
media_buffer_allocate(unsigned long, unsigned int, unsigned int *, unsigned char **)
                        0x000165a9   0x4c  Code  Lc  media_buffer_manager.o [6]
media_buffer_allocate_internal(unsigned long, unsigned int, unsigned long)
                        0x00016587   0x22  Code  Lc  media_buffer_manager.o [6]
media_buffer_count_all_temporary()
                        0x00016c43   0x26  Code  Gb  media_buffer_manager.o [6]
media_buffer_deinit     0x00013311   0x6c  Code  Gb  media_buffer_manager_init.o [6]
media_buffer_dispose_temporary(unsigned int)
                        0x00016b4f   0xd6  Code  Lc  media_buffer_manager.o [6]
media_buffer_force_dispose_temporary()
                        0x00016c69   0x94  Code  Gb  media_buffer_manager.o [6]
media_buffer_get_type_size(_media_buffer_type)
                        0x00016361   0x28  Code  Lc  media_buffer_manager.o [6]
media_buffer_init       0x00013261   0xb0  Code  Gb  media_buffer_manager_init.o [6]
media_buffer_release    0x0001697b  0x116  Code  Gb  media_buffer_manager.o [6]
media_buffer_retain     0x000168f3   0x88  Code  Gb  media_buffer_manager.o [6]
media_buffer_search(unsigned long, unsigned long, unsigned int, unsigned int *)
                        0x000164e3   0xa4  Code  Lc  media_buffer_manager.o [6]
media_buffer_setup_next_timeout()
                        0x00016a91   0xbe  Code  Lc  media_buffer_manager.o [6]
media_buffer_shrink_slots()
                        0x000168c5   0x2e  Code  Lc  media_buffer_manager.o [6]
media_buffer_timeout(unsigned long, void *, unsigned long, unsigned long)
                        0x00016c25   0x1e  Code  Gb  media_buffer_manager.o [6]
media_buffer_update_stats(_media_buffer_statistics *, unsigned long)
                        0x000165f5   0x26  Code  Lc  media_buffer_manager.o [6]
memcmp                  0x00015359         Code  Gb  memcmp.o [10]
memcpy                  0x00014cd3   0x16  Code  Gb  zone_map_section_page.o [6]
memset                  0x00002b85   0x16  Code  Gb  ddi_nand_data_drive_read_sector.o [6]
mfs_nandflash_wl_close()
                        0x0000a459   0x88  Code  Gb  demo.o [1]
mfs_nandflash_wl_open()
                        0x0000a359   0xfa  Code  Gb  demo.o [1]
months                  0x000277b8   0x34  Data  Lc  dir_read.o [8]
nand::BadBlockTable::BadBlockTable()
                        0x0001a049   0x12  Code  Gb  bad_block_table.o [6]
nand::BadBlockTable::allocate(unsigned int)
                        0x0001a069   0x3a  Code  Gb  bad_block_table.o [6]
nand::BadBlockTable::getEntries()
                        0x0001dfc5    0x4  Code  Gb  ddi_nand_mapper_utilities.o [6]
nand::BadBlockTable::getNumberBadBlocks()
                        0x0001a141    0x4  Code  Gb  ddi_nand_media_init.o [6]
nand::BadBlockTable::isAllocated()
                        0x0001a13d    0x4  Code  Gb  ddi_nand_media_init.o [6]
nand::BadBlockTable::markBad(unsigned int)
                        0x0001a105   0x28  Code  Gb  bad_block_table.o [6]
nand::BadBlockTable::release()
                        0x0001a0e3   0x22  Code  Gb  bad_block_table.o [6]
nand::BadBlockTable::scanAndBuildBBT()
                        0x0001a0a3   0x40  Code  Gb  bad_block_table.o [6]
nand::BadBlockTable::~BadBlockTable()
                        0x0001a05b    0xe  Code  Gb  bad_block_table.o [6]
nand::Block::Block(nand::BlockAddress const &)
                        0x0001b9b1   0x1a  Code  Gb  ddi_block.o [6]
nand::Block::erase()    0x0001ba21   0x18  Code  Gb  ddi_block.o [6]
nand::Block::eraseAndMarkOnFailure()
                        0x0001bb45   0x1a  Code  Gb  ddi_block.o [6]
nand::Block::isErased()
                        0x0001bb5f   0x50  Code  Gb  ddi_block.o [6]
nand::Block::isMarkedBad(unsigned char *, unsigned long *)
                        0x0001ba39   0x64  Code  Gb  ddi_block.o [6]
nand::Block::markBad()  0x0001baad   0x98  Code  Gb  ddi_block.o [6]
nand::Block::operator ++()
                        0x0001b9e5   0x16  Code  Gb  ddi_block.o [6]
nand::Block::operator =(nand::BlockAddress const &)
                        0x0001b9cb   0x1a  Code  Gb  ddi_block.o [6]
nand::Block::readMetadata(unsigned int, unsigned char *)
                        0x0001b9fb   0x26  Code  Gb  ddi_block.o [6]
nand::BlockAddress::BlockAddress()
                        0x0001e21f    0x6  Code  Gb  persistent_map.o [6]
nand::BlockAddress::BlockAddress(const nand::BlockAddress&)
                        0x0001e23f    0x6  Code  Gb  persistent_map.o [6]
nand::BlockAddress::BlockAddress(const nand::BlockAddress&) [subobject]
                        0x0001e031    0xc  Code  Gb  ddi_block.o [6]
nand::BlockAddress::BlockAddress(unsigned int)
                        0x0001a145    0x4  Code  Gb  ddi_nand_data_drive_erase.o [6]
nand::BlockAddress::BlockAddress(unsigned int, unsigned int)
                        0x0001cf97   0x1a  Code  Gb  ddi_nand_data_drive_erase.o [6]
nand::BlockAddress::get() const
                        0x0001c17f    0x4  Code  Gb  ddi_nand_data_drive_erase.o [6]
nand::BlockAddress::getNand() const
                        0x0001e03d   0x1c  Code  Gb  persistent_map.o [6]
nand::BlockAddress::getPage() const
                        0x0001db99    0xe  Code  Gb  ddi_nand_data_drive_erase.o [6]
nand::BlockAddress::getRelativeBlock() const
                        0x0001e073   0x12  Code  Gb  ddi_block.o [6]
nand::BlockAddress::isValid() const
                        0x0001dfab    0xe  Code  Gb  persistent_map.o [6]
nand::BlockAddress::operator ++()
                        0x0001e059    0x8  Code  Gb  ddi_block.o [6]
nand::BlockAddress::operator =(const nand::BlockAddress&)
                        0x0001cb85   0x12  Code  Gb  persistent_map.o [6]
nand::BlockAddress::operator unsigned int() const
                        0x0001b97f    0x4  Code  Gb  ddi_nand_data_drive_read_sector.o [6]
nand::BlockAddress::set(const nand::BlockAddress&)
                        0x0001e119    0x6  Code  Gb  persistent_map.o [6]
nand::BootRegion::BootRegion()
                        0x00022411   0x18  Code  Gb  ddi_nand_media_discover.o [6]
nand::BootRegion::getRegionType() const
                        0x00002dbb    0x6  Code  Gb  ddi_nand_media_discover.o [6]
nand::BootRegion::~BootRegion()
                        0x00024f6f    0xe  Code  Gb  ddi_nand_media_discover.o [6]
nand::BootRegion::~BootRegion() [deleting]
                        0x00024f9b   0x16  Code  Gb  ddi_nand_media_discover.o [6]
nand::DataDrive::DataDrive(nand::Media *, nand::Region *)
                        0x0002243f   0x5c  Code  Gb  ddi_nand_data_drive_init.o [6]
nand::DataDrive::addRegion(nand::Region *)
                        0x000224a9   0x36  Code  Gb  ddi_nand_data_drive_init.o [6]
nand::DataDrive::buildRegionsList()
                        0x000225bb   0xa8  Code  Gb  ddi_nand_data_drive_init.o [6]
nand::DataDrive::erase()
                        0x00024851  0x12e  Code  Gb  ddi_nand_data_drive_erase.o [6]
nand::DataDrive::flush()
                        0x00025005   0x36  Code  Gb  ddi_nand_ndd_flush.o [6]
nand::DataDrive::getInfo(unsigned int, void *)
                        0x00024e49   0x84  Code  Gb  ddi_nand_data_drive_get_info.o [6]
nand::DataDrive::init()
                        0x000224df   0x74  Code  Gb  ddi_nand_data_drive_init.o [6]
nand::DataDrive::isBlockHidden(unsigned int)
                        0x00024dd9   0x70  Code  Gb  ddi_nand_data_drive_erase.o [6]
nand::DataDrive::logicalBlockToVirtual(unsigned int, nand::Region **, unsigned int *)
                        0x000241d9   0x76  Code  Gb  ddi_nand_data_drive_read_sector.o [6]
nand::DataDrive::logicalSectorToVirtual(unsigned int, nand::Region **, unsigned int *)
                        0x0002424f   0x4e  Code  Gb  ddi_nand_data_drive_read_sector.o [6]
nand::DataDrive::processRegions(nand::Region **, unsigned int *)
                        0x00022553   0x68  Code  Gb  ddi_nand_data_drive_init.o [6]
nand::DataDrive::readSector(unsigned int, unsigned char *)
                        0x0002429d   0x18  Code  Gb  ddi_nand_data_drive_read_sector.o [6]
nand::DataDrive::readSectorInternal(unsigned int, unsigned char *)
                        0x000242b5  0x264  Code  Gb  ddi_nand_data_drive_read_sector.o [6]
nand::DataDrive::repair(bool)
                        0x0002497f  0x3f4  Code  Gb  ddi_nand_data_drive_erase.o [6]
nand::DataDrive::shouldRepairEraseBlock(unsigned int, NandPhysicalMedia *)
                        0x00024d81   0x58  Code  Gb  ddi_nand_data_drive_erase.o [6]
nand::DataDrive::shutdown()
                        0x0002503b   0x2e  Code  Gb  ddi_nand_ndd_flush.o [6]
nand::DataDrive::writeSector(unsigned int, unsigned char const *)
                        0x00024555   0x18  Code  Gb  ddi_nand_ndd_write_sector.o [6]
nand::DataDrive::writeSectorInternal(unsigned int, unsigned char const *)
                        0x0002456d  0x2d0  Code  Gb  ddi_nand_ndd_write_sector.o [6]
nand::DataDrive::~DataDrive()
                        0x0002249b    0xe  Code  Gb  ddi_nand_data_drive_init.o [6]
nand::DataDrive::~DataDrive() [deleting]
                        0x00022429   0x16  Code  Gb  ddi_nand_data_drive_init.o [6]
nand::DataRegion::DataRegion()
                        0x000155f9   0x16  Code  Gb  ddi_nand_media_init.o [6]
nand::DataRegion::addNewBadBlock(nand::BlockAddress const &)
                        0x000223ed   0x14  Code  Gb  ddi_nand_media_discover.o [6]
nand::DataRegion::getBadBlockCount() const
                        0x00024f97    0x4  Code  Gb  ddi_nand_media_discover.o [6]
nand::DataRegion::getRegionType() const
                        0x0000360b    0x6  Code  Gb  ddi_nand_media_discover.o [6]
nand::DataRegion::~DataRegion()
                        0x00024f89    0xe  Code  Gb  ddi_nand_media_discover.o [6]
nand::DataRegion::~DataRegion() [deleting]
                        0x00024fb1   0x16  Code  Gb  ddi_nand_media_discover.o [6]
nand::DeferredTask::DeferredTask(int)
                        0x0001d03f   0x1e  Code  Gb  deferred_task.o [6]
nand::DeferredTask::DeferredTask(int) [subobject]
                        0x0001d011    0xc  Code  Gb  deferred_task.o [6]
nand::DeferredTask::examine(nand::DeferredTaskQueue &)
                        0x0001d085   0x5c  Code  Gb  deferred_task.o [6]
nand::DeferredTask::examineOne(nand::DeferredTask*)
                        0x0001d0e1    0x6  Code  Gb  deferred_task.o [6]
nand::DeferredTask::getPriority() const
                        0x0001a7d7    0x4  Code  Gb  deferred_task_queue.o [6]
nand::DeferredTask::getShouldExamine() const
                        0x0001d063    0x6  Code  Gb  deferred_task.o [6]
nand::DeferredTask::run()
                        0x0001d069   0x1c  Code  Gb  deferred_task.o [6]
nand::DeferredTask::~DeferredTask()
                        0x0001d061    0x2  Code  Gb  deferred_task.o [6]
nand::DeferredTask::~DeferredTask() [deleting]
                        0x0001d01d   0x16  Code  Gb  deferred_task.o [6]
nand::DeferredTask::~DeferredTask() [subobject]
                        0x0001d033    0xc  Code  Gb  deferred_task.o [6]
nand::DeferredTaskQueue::DeferredTaskQueue()
                        0x000177dd   0x3a  Code  Gb  deferred_task_queue.o [6]
nand::DeferredTaskQueue::drain()
                        0x0001788d   0x2c  Code  Gb  deferred_task_queue.o [6]
nand::DeferredTaskQueue::getBegin()
                        0x0001a7db    0xe  Code  Gb  deferred_task.o [6]
nand::DeferredTaskQueue::getEnd()
                        0x0001a7e9    0xe  Code  Gb  deferred_task.o [6]
nand::DeferredTaskQueue::init()
                        0x00017817   0x2c  Code  Gb  deferred_task_queue.o [6]
nand::DeferredTaskQueue::isEmpty() const
                        0x0001a6a9    0xe  Code  Gb  deferred_task_queue.o [6]
nand::DeferredTaskQueue::post(nand::DeferredTask *)
                        0x000178b9   0xea  Code  Gb  deferred_task_queue.o [6]
nand::DeferredTaskQueue::taskThread()
                        0x000179cb   0x86  Code  Gb  deferred_task_queue.o [6]
nand::DeferredTaskQueue::taskThreadStub(unsigned int)
                        0x000179b9   0x12  Code  Gb  deferred_task_queue.o [6]
nand::DeferredTaskQueue::~DeferredTaskQueue()
                        0x00017843   0x4a  Code  Gb  deferred_task_queue.o [6]
nand::Mapper::Mapper(nand::Media *)
                        0x00017a51   0x4e  Code  Gb  mapper.o [6]
nand::Mapper::allocateBlock(unsigned int *, nand::MapperBlockTypes_t, unsigned int)
                        0x0001b431  0x21e  Code  Gb  ddi_nand_mapper_utilities.o [6]
nand::Mapper::calculateAllocationIndex()
                        0x0001b64f  0x204  Code  Gb  ddi_nand_mapper_utilities.o [6]
nand::Mapper::calculateNextMapSearchStartBlock()
                        0x0001b853   0x3a  Code  Gb  ddi_nand_mapper_utilities.o [6]
nand::Mapper::clearDirtyFlag()
                        0x0001814b    0xc  Code  Gb  mapper.o [6]
nand::Mapper::computeReservedBlockRange(bool *)
                        0x00017ca9  0x1e6  Code  Gb  mapper.o [6]
nand::Mapper::createZoneMap()
                        0x00018533  0x174  Code  Gb  mapper.o [6]
nand::Mapper::evacuateReservedBlockRange()
                        0x00017e8f  0x250  Code  Gb  mapper.o [6]
nand::Mapper::findMapBlock(nand::MapperMapTypes_t, unsigned int *)
                        0x0001844f   0x50  Code  Gb  mapper.o [6]
nand::Mapper::flush()   0x000183bd   0x92  Code  Gb  mapper.o [6]
nand::Mapper::getBlock(unsigned int *, nand::MapperBlockTypes_t, unsigned int)
                        0x0001821b   0x7c  Code  Gb  mapper.o [6]
nand::Mapper::getBlockAndAssign(unsigned int, unsigned int *, nand::MapperBlockTypes_t, unsigned int)
                        0x000182d3   0x84  Code  Gb  mapper.o [6]
nand::Mapper::getBlockInfo(unsigned int, unsigned int *)
                        0x0001c089   0x20  Code  Gb  ddi_nand_mapper_get_info.o [6]
nand::Mapper::getMedia()
                        0x0001c177    0x4  Code  Gb  ddi_nand_mapper_utilities.o [6]
nand::Mapper::getPageInfo(unsigned int, unsigned int *, unsigned int *, unsigned int *)
                        0x0001c0e5   0x82  Code  Gb  ddi_nand_mapper_get_info.o [6]
nand::Mapper::getPhymap()
                        0x0001cf93    0x4  Code  Gb  persistent_map.o [6]
nand::Mapper::handleNewBadBlock(nand::BlockAddress const &)
                        0x0001849f   0x3c  Code  Gb  mapper.o [6]
nand::Mapper::init()    0x00017aa1  0x1d4  Code  Gb  mapper.o [6]
nand::Mapper::isBlockMapBlock(unsigned int, nand::MapperMapTypes_t, unsigned long *)
                        0x0001b88d   0x86  Code  Gb  ddi_nand_mapper_utilities.o [6]
nand::Mapper::isBlockUnallocated(unsigned int)
                        0x0001bfcd   0x10  Code  Gb  ddi_nand_data_drive_erase.o [6]
nand::Mapper::isBuildingMaps() const
                        0x0001ddef    0x4  Code  Gb  persistent_map.o [6]
nand::Mapper::isInitialized() const
                        0x00022041    0x4  Code  Gb  ddi_nand_data_drive_erase.o [6]
nand::Mapper::markBlock(unsigned int, unsigned int, bool)
                        0x00018357   0x66  Code  Gb  mapper.o [6]
nand::Mapper::phymapDirtyListener(nand::PhyMap *, bool, bool, void *)
                        0x000180e1   0x5e  Code  Gb  mapper.o [6]
nand::Mapper::rebuild()
                        0x00017c75   0x34  Code  Gb  mapper.o [6]
nand::Mapper::scanAndBuildPhyMap(AuxiliaryBuffer &)
                        0x000186a7  0x162  Code  Gb  mapper.o [6]
nand::Mapper::scanAndBuildZoneMap(AuxiliaryBuffer &)
                        0x00018811  0x210  Code  Gb  mapper.o [6]
nand::Mapper::searchAndDestroy()
                        0x000184db   0x58  Code  Gb  mapper.o [6]
nand::Mapper::searchPhyMapEntry(unsigned int, int, int, bool *)
                        0x0001b3b5   0x7c  Code  Gb  ddi_nand_mapper_utilities.o [6]
nand::Mapper::setBlockInfo(unsigned int, unsigned int)
                        0x000181d7   0x44  Code  Gb  mapper.o [6]
nand::Mapper::setDirtyFlag()
                        0x0001813f    0xc  Code  Gb  mapper.o [6]
nand::Mapper::shutdown()
                        0x00018157   0x80  Code  Gb  mapper.o [6]
nand::Mapper::sufficientNumOfFreeBlocks()
                        0x00018297   0x3c  Code  Gb  mapper.o [6]
nand::Mapper::~Mapper()
                        0x00017a9f    0x2  Code  Gb  mapper.o [6]
nand::Media::Media()    0x0001540f   0x3a  Code  Gb  ddi_nand_media_init.o [6]
nand::Media::allocateFromPreDefineRegions()
                        0x00022175   0xb0  Code  Gb  ddi_nand_media_allocate.o [6]
nand::Media::createDrives()
                        0x0002231d   0xba  Code  Gb  ddi_nand_media_discover.o [6]
nand::Media::createRegionIterator()
                        0x0001b945   0x1a  Code  Gb  ddi_nand_data_drive_erase.o [6]
nand::Media::deleteRegions()
                        0x00021f31   0x46  Code  Gb  ddi_nand_media_shutdown.o [6]
nand::Media::flushDrives()
                        0x00021efd   0x34  Code  Gb  ddi_nand_media_shutdown.o [6]
nand::Media::getBBT()   0x0001c17b    0x4  Code  Gb  ddi_nand_mapper_utilities.o [6]
nand::Media::getDeferredQueue()
                        0x0002454f    0x4  Code  Gb  ddi_nand_data_drive_read_sector.o [6]
nand::Media::getInfo(unsigned int, void *)
                        0x00022045   0xf6  Code  Gb  ddi_nand_media_get_info.o [6]
nand::Media::getMapper()
                        0x0001c82d    0x4  Code  Gb  ddi_nand_ndd_flush.o [6]
nand::Media::getNssmManager()
                        0x0001b93d    0x4  Code  Gb  ddi_nand_data_drive_set_info.o [6]
nand::Media::getPagePerBlock()
                        0x0001c1d1    0x6  Code  Gb  mapper.o [6]
nand::Media::getRegionCount() const
                        0x0001b941    0x4  Code  Gb  mapper.o [6]
nand::Media::getRegionForBlock(nand::BlockAddress const &)
                        0x0001cba3   0x80  Code  Gb  ddi_nand_media_regions.o [6]
nand::Media::getReservedBlockCount() const
                        0x00022675    0x4  Code  Gb  ddi_nand_data_drive_init.o [6]
nand::Media::getTotalBlockCount() const
                        0x0001a839    0x4  Code  Gb  persistent_phy_map.o [6]
nand::Media::init()     0x00015457  0x154  Code  Gb  ddi_nand_media_init.o [6]
nand::Media::shutdown()
                        0x00021f77   0xc6  Code  Gb  ddi_nand_media_shutdown.o [6]
nand::Media::~Media()   0x00015449    0xe  Code  Gb  ddi_nand_media_init.o [6]
nand::Media::~Media() [deleting]
                        0x000153f9   0x16  Code  Gb  ddi_nand_media_init.o [6]
nand::Metadata::Metadata()
                        0x0001e12f    0x6  Code  Gb  ddi_nand_ndd_write_sector.o [6]
nand::Metadata::Metadata(unsigned char *)
                        0x0001bc0f    0x4  Code  Gb  mapper.o [6]
nand::Metadata::clearFlag(unsigned char)
                        0x0001bdc3   0x28  Code  Gb  ddi_metadata.o [6]
nand::Metadata::erase()
                        0x0001bdeb   0x26  Code  Gb  ddi_metadata.o [6]
nand::Metadata::getLba() const
                        0x0001bc15   0x26  Code  Gb  ddi_metadata.o [6]
nand::Metadata::getLsi() const
                        0x0001bc3b   0x1e  Code  Gb  ddi_metadata.o [6]
nand::Metadata::getMetadataStructSize()
                        0x0001bedd    0x4  Code  Gb  ddi_metadata.o [6]
nand::Metadata::getSignature() const
                        0x0001bc59   0x36  Code  Gb  ddi_metadata.o [6]
nand::Metadata::getTrustNumber()
                        0x0001bea7   0x28  Code  Gb  ddi_metadata.o [6]
nand::Metadata::isErased() const
                        0x0001bce5   0x3e  Code  Gb  ddi_metadata.o [6]
nand::Metadata::isFlagSet(unsigned char) const
                        0x0001bc8f   0x2c  Code  Gb  ddi_metadata.o [6]
nand::Metadata::isMarkedBad() const
                        0x0001bcbb   0x2a  Code  Gb  ddi_metadata.o [6]
nand::Metadata::prepare(unsigned int)
                        0x0001be33   0x16  Code  Gb  ddi_metadata.o [6]
nand::Metadata::prepare(unsigned int, unsigned int)
                        0x0001be11   0x22  Code  Gb  ddi_metadata.o [6]
nand::Metadata::prepareWithTrust(unsigned int, unsigned short)
                        0x0001be8b   0x1c  Code  Gb  ddi_metadata.o [6]
nand::Metadata::setBuffer(unsigned char *)
                        0x0001e1cd    0x4  Code  Gb  ddi_nand_ndd_write_sector.o [6]
nand::Metadata::setFlag(unsigned char)
                        0x0001bd9b   0x28  Code  Gb  ddi_metadata.o [6]
nand::Metadata::setLba(unsigned int)
                        0x0001bd23   0x26  Code  Gb  ddi_metadata.o [6]
nand::Metadata::setLsi(unsigned short)
                        0x0001bd49   0x20  Code  Gb  ddi_metadata.o [6]
nand::Metadata::setSignature(unsigned int)
                        0x0001bd69   0x32  Code  Gb  ddi_metadata.o [6]
nand::Metadata::setSignatureAndTrustNumber(unsigned int, unsigned short)
                        0x0001be49   0x42  Code  Gb  ddi_metadata.o [6]
nand::NonsequentialSectorsMap::CopyPagesFlagFilter::CopyPagesFlagFilter()
                        0x0001cff9   0x18  Code  Gb  nonsequential_sectors_map.o [6]
nand::NonsequentialSectorsMap::CopyPagesFlagFilter::filter(NandPhysicalMedia *, NandPhysicalMedia *, unsigned int, unsigned int, unsigned char *, unsigned char *, bool *)
                        0x00019f1d   0x5a  Code  Gb  nonsequential_sectors_map.o [6]
nand::NonsequentialSectorsMap::NonsequentialSectorsMap()
                        0x00018cc5   0x4e  Code  Gb  nonsequential_sectors_map.o [6]
nand::NonsequentialSectorsMap::addEntry(unsigned int, unsigned int)
                        0x00019119   0x66  Code  Gb  nonsequential_sectors_map.o [6]
nand::NonsequentialSectorsMap::buildFromMetadata()
                        0x00018e75   0x90  Code  Gb  nonsequential_sectors_map.o [6]
nand::NonsequentialSectorsMap::buildMapFromMetadata(nand::PageOrderMap &, unsigned int, unsigned int *)
                        0x00018f05  0x214  Code  Gb  nonsequential_sectors_map.o [6]
nand::NonsequentialSectorsMap::copyPages(NandPhysicalMedia *, NandPhysicalMedia *, unsigned int, unsigned int, unsigned int, unsigned int, unsigned int)
                        0x00019e3b   0xe2  Code  Gb  nonsequential_sectors_map.o [6]
nand::NonsequentialSectorsMap::copyToNewBlock(unsigned int, unsigned int *, unsigned int, unsigned int)
                        0x00019b17   0x9a  Code  Gb  nonsequential_sectors_map.o [6]
nand::NonsequentialSectorsMap::flush()
                        0x00018d95   0x32  Code  Gb  nonsequential_sectors_map.o [6]
nand::NonsequentialSectorsMap::getEntry(unsigned int, unsigned int *, unsigned int *, unsigned int *)
                        0x0001bf2b   0x7e  Code  Gb  ddi_nand_nssm_get_entry.o [6]
nand::NonsequentialSectorsMap::getKey() const
                        0x00019f77    0x6  Code  Gb  nonsequential_sectors_map.o [6]
nand::NonsequentialSectorsMap::getMapper()
                        0x0001cc2b    0xc  Code  Gb  nonsequential_sectors_map.o [6]
nand::NonsequentialSectorsMap::getMedia()
                        0x0001cb97    0xc  Code  Gb  nonsequential_sectors_map.o [6]
nand::NonsequentialSectorsMap::getNewBlock(unsigned int, unsigned int *, unsigned int)
                        0x00019865  0x134  Code  Gb  nonsequential_sectors_map.o [6]
nand::NonsequentialSectorsMap::getNextOffset()
                        0x0002484d    0x4  Code  Gb  ddi_nand_ndd_write_sector.o [6]
nand::NonsequentialSectorsMap::getPhysicalBlock(unsigned int *)
                        0x00018e3f   0x30  Code  Gb  nonsequential_sectors_map.o [6]
nand::NonsequentialSectorsMap::getRegion()
                        0x00018e15   0x2a  Code  Gb  nonsequential_sectors_map.o [6]
nand::NonsequentialSectorsMap::getWeight() const
                        0x00024f1d    0x6  Code  Gb  nonsequential_sectors_map.o [6]
nand::NonsequentialSectorsMap::init(nand::NssmManager *, unsigned short)
                        0x00018d47   0x34  Code  Gb  nonsequential_sectors_map.o [6]
nand::NonsequentialSectorsMap::insertToLRU()
                        0x0001bfa9   0x12  Code  Gb  ddi_nand_nssm_get_entry.o [6]
nand::NonsequentialSectorsMap::invalidate()
                        0x00018dc7   0x4e  Code  Gb  nonsequential_sectors_map.o [6]
nand::NonsequentialSectorsMap::isInLogicalOrder()
                        0x0001917f   0x1a  Code  Gb  nonsequential_sectors_map.o [6]
nand::NonsequentialSectorsMap::isNodeValid() const
                        0x00024f11    0xc  Code  Gb  nonsequential_sectors_map.o [6]
nand::NonsequentialSectorsMap::isValid() const
                        0x00024eff   0x12  Code  Gb  nonsequential_sectors_map.o [6]
nand::NonsequentialSectorsMap::mergeBlocks()
                        0x0001cb75   0x10  Code  Gb  nonsequential_sectors_map.o [6]
nand::NonsequentialSectorsMap::mergeBlocksCore(unsigned int, unsigned int)
                        0x000194ef  0x370  Code  Gb  nonsequential_sectors_map.o [6]
nand::NonsequentialSectorsMap::mergeBlocksSkippingPage(unsigned int)
                        0x00019493   0x5c  Code  Gb  nonsequential_sectors_map.o [6]
nand::NonsequentialSectorsMap::prepareForBlock(unsigned int)
                        0x00018d7b   0x1a  Code  Gb  nonsequential_sectors_map.o [6]
nand::NonsequentialSectorsMap::preventThrashing(unsigned int *, unsigned int)
                        0x000199a1   0xea  Code  Gb  nonsequential_sectors_map.o [6]
nand::NonsequentialSectorsMap::quickMerge()
                        0x0001930f  0x184  Code  Gb  nonsequential_sectors_map.o [6]
nand::NonsequentialSectorsMap::recoverBadLbaBlock(unsigned int, unsigned int *, unsigned int)
                        0x00019aa5   0x72  Code  Gb  nonsequential_sectors_map.o [6]
nand::NonsequentialSectorsMap::relocateVirtualBlock(unsigned int, unsigned int *)
                        0x00019bb1   0x7c  Code  Gb  nonsequential_sectors_map.o [6]
nand::NonsequentialSectorsMap::removeFromLRU()
                        0x0001bfbb   0x12  Code  Gb  ddi_nand_nssm_get_entry.o [6]
nand::NonsequentialSectorsMap::resolveConflict(unsigned int, unsigned int, unsigned int)
                        0x00019c2d  0x20e  Code  Gb  nonsequential_sectors_map.o [6]
nand::NonsequentialSectorsMap::shortCircuitMerge()
                        0x000192cd   0x42  Code  Gb  nonsequential_sectors_map.o [6]
nand::NonsequentialSectorsMap::sortAndCopyLbaBlock(unsigned int, unsigned int, unsigned int, unsigned int)
                        0x00019199  0x134  Code  Gb  nonsequential_sectors_map.o [6]
nand::NonsequentialSectorsMap::~NonsequentialSectorsMap()
                        0x00018d15   0x32  Code  Gb  nonsequential_sectors_map.o [6]
nand::NssmManager::NssmManager(nand::Media *)
                        0x00018a45   0x46  Code  Gb  nonsequential_sectors_map.o [6]
nand::NssmManager::allocate(unsigned int)
                        0x00018a8b   0xac  Code  Gb  nonsequential_sectors_map.o [6]
nand::NssmManager::buildMap(unsigned int, nand::NonsequentialSectorsMap **)
                        0x00018c65   0x5e  Code  Gb  nonsequential_sectors_map.o [6]
nand::NssmManager::flushAll()
                        0x00018b93   0x24  Code  Gb  nonsequential_sectors_map.o [6]
nand::NssmManager::getBaseNssmCount()
                        0x00018b5f   0x34  Code  Gb  nonsequential_sectors_map.o [6]
nand::NssmManager::getMapForIndex(unsigned int)
                        0x0001c8e9    0xa  Code  Gb  nonsequential_sectors_map.o [6]
nand::NssmManager::getMapForVirtualBlock(unsigned int)
                        0x0001bee1   0x4a  Code  Gb  ddi_nand_nssm_get_entry.o [6]
nand::NssmManager::getMapper()
                        0x0001e11f    0x4  Code  Gb  nonsequential_sectors_map.o [6]
nand::NssmManager::getMedia()
                        0x0001c829    0x4  Code  Gb  nonsequential_sectors_map.o [6]
nand::NssmManager::getStatistics()
                        0x0001cf83    0x4  Code  Gb  nonsequential_sectors_map.o [6]
nand::NssmManager::invalidateAll()
                        0x00018bb7   0x4a  Code  Gb  nonsequential_sectors_map.o [6]
nand::NssmManager::invalidateDrive(LogicalDrive *)
                        0x00018c01   0x64  Code  Gb  nonsequential_sectors_map.o [6]
nand::NssmManager::~NssmManager()
                        0x00018b37   0x28  Code  Gb  nonsequential_sectors_map.o [6]
nand::Page::Page()      0x0001cc5d   0x32  Code  Gb  ddi_page.o [6]
nand::Page::Page() [subobject]
                        0x0001cc39    0xc  Code  Gb  ddi_page.o [6]
nand::Page::Page(nand::BlockAddress const &)
                        0x0001ccc7   0x3a  Code  Gb  ddi_page.o [6]
nand::Page::Page(nand::PageAddress const &)
                        0x0001cc8f   0x38  Code  Gb  ddi_page.o [6]
nand::Page::Page(nand::PageAddress const &) [subobject]
                        0x0001cc45    0xc  Code  Gb  ddi_page.o [6]
nand::Page::_io_read()  0x0001ce19   0x68  Code  Gb  ddi_page.o [6]
nand::Page::_io_write()
                        0x0001cec1   0x68  Code  Gb  ddi_page.o [6]
nand::Page::allocateBuffers(bool, bool)
                        0x0001cda9   0x5a  Code  Gb  ddi_page.o [6]
nand::Page::buffersDidChange()
                        0x0001cf29   0x18  Code  Gb  ddi_page.o [6]
nand::Page::getDataSize() const
                        0x0001e361   0x10  Code  Gb  zone_map_section_page.o [6]
nand::Page::getMetadata()
                        0x0001cf55    0x4  Code  Gb  ddi_nand_data_drive_erase.o [6]
nand::Page::operator ++()
                        0x0001cd57   0x16  Code  Gb  ddi_page.o [6]
nand::Page::operator --()
                        0x0001cd6d   0x16  Code  Gb  ddi_page.o [6]
nand::Page::operator =(nand::PageAddress const &)
                        0x0001cd01   0x1a  Code  Gb  ddi_page.o [6]
nand::Page::readMetadata()
                        0x0001ce81   0x40  Code  Gb  ddi_page.o [6]
nand::Page::releaseBuffers()
                        0x0001ce03   0x16  Code  Gb  ddi_page.o [6]
nand::Page::set(nand::PageAddress const &)
                        0x0001cd3f   0x18  Code  Gb  ddi_page.o [6]
nand::Page::setBuffers(unsigned char *, unsigned char *)
                        0x0001cd83   0x26  Code  Gb  ddi_page.o [6]
nand::Page::~Page()     0x0001cd1b   0x24  Code  Gb  ddi_page.o [6]
nand::Page::~Page() [subobject]
                        0x0001cc51    0xc  Code  Gb  ddi_page.o [6]
nand::PageAddress::PageAddress()
                        0x0001e31b    0x6  Code  Gb  ddi_page.o [6]
nand::PageAddress::PageAddress() [subobject]
                        0x0001e123    0xc  Code  Gb  ddi_page.o [6]
nand::PageAddress::PageAddress(const nand::PageAddress&)
                        0x0001e321    0x6  Code  Gb  ddi_page.o [6]
nand::PageAddress::PageAddress(const nand::PageAddress&) [subobject]
                        0x0001e135    0xc  Code  Gb  ddi_page.o [6]
nand::PageAddress::PageAddress(nand::BlockAddress const &, unsigned int)
                        0x0001cf59   0x2a  Code  Gb  ddi_nand_data_drive_erase.o [6]
nand::PageAddress::PageAddress(nand::BlockAddress const &, unsigned int) [subobject]
                        0x0001e15d    0xc  Code  Gb  ddi_page.o [6]
nand::PageAddress::PageAddress(unsigned int)
                        0x0001e23b    0x4  Code  Gb  persistent_map.o [6]
nand::PageAddress::PageAddress(unsigned int, unsigned int)
                        0x0001dfd7   0x1c  Code  Gb  ddi_nand_data_drive_erase.o [6]
nand::PageAddress::getNand() const
                        0x0001e141   0x1c  Code  Gb  zone_map_section_page.o [6]
nand::PageAddress::getRelativePage() const
                        0x0001e061   0x12  Code  Gb  ddi_block.o [6]
nand::PageAddress::isValid() const
                        0x0001e327    0xe  Code  Gb  zone_map_section_page.o [6]
nand::PageAddress::operator ++()
                        0x0001e181    0x8  Code  Gb  ddi_page.o [6]
nand::PageAddress::operator --()
                        0x0001e189    0x8  Code  Gb  ddi_page.o [6]
nand::PageAddress::operator =(const nand::PageAddress&)
                        0x0001e169   0x12  Code  Gb  ddi_page.o [6]
nand::PageAddress::set(const nand::PageAddress&)
                        0x0001e17b    0x6  Code  Gb  ddi_page.o [6]
nand::PageOrderMap::PageOrderMap()
                        0x0001c8ff    0xe  Code  Gb  persistent_map.o [6]
nand::PageOrderMap::cleanup()
                        0x0001c9c7   0x1a  Code  Gb  page_order_map.o [6]
nand::PageOrderMap::clear()
                        0x0001cb2d   0x20  Code  Gb  page_order_map.o [6]
nand::PageOrderMap::countDistinctEntries() const
                        0x0001cb4d   0x28  Code  Gb  page_order_map.o [6]
nand::PageOrderMap::getEntryCount() const
                        0x0001cf87    0x4  Code  Gb  page_order_map.o [6]
nand::PageOrderMap::init(unsigned int, unsigned int)
                        0x0001c963   0x64  Code  Gb  page_order_map.o [6]
nand::PageOrderMap::isInSortedOrder(unsigned int) const
                        0x0001cacd   0x38  Code  Gb  page_order_map.o [6]
nand::PageOrderMap::isOccupied(unsigned int) const
                        0x0001ca0d   0x36  Code  Gb  page_order_map.o [6]
nand::PageOrderMap::operator =(const nand::PageOrderMap&)
                        0x0001c929   0x3a  Code  Gb  page_order_map.o [6]
nand::PageOrderMap::operator [](unsigned int) const
                        0x0001ca95   0x20  Code  Gb  page_order_map.o [6]
nand::PageOrderMap::setEntry(unsigned int, unsigned char)
                        0x0001c9e1   0x2c  Code  Gb  page_order_map.o [6]
nand::PageOrderMap::setOccupied(unsigned int, bool)
                        0x0001ca43   0x52  Code  Gb  page_order_map.o [6]
nand::PageOrderMap::setSortedOrder()
                        0x0001cb05   0x28  Code  Gb  page_order_map.o [6]
nand::PageOrderMap::~PageOrderMap()
                        0x0001c90d    0xe  Code  Gb  persistent_map.o [6]
nand::PersistentMap::PersistentMap(nand::Mapper &, unsigned int, unsigned int)
                        0x0001d205   0x3a  Code  Gb  persistent_map.o [6]
nand::PersistentMap::PersistentMap(nand::Mapper &, unsigned int, unsigned int) [subobject]
                        0x0001d1ed    0xc  Code  Gb  persistent_map.o [6]
nand::PersistentMap::addSection(unsigned char *, unsigned int, unsigned int)
                        0x0001da09  0x174  Code  Gb  persistent_map.o [6]
nand::PersistentMap::buildSectionOffsetTable()
                        0x0001d481  0x12c  Code  Gb  persistent_map.o [6]
nand::PersistentMap::consolidate(bool, unsigned int, unsigned char *, unsigned int)
                        0x0001d727  0x282  Code  Gb  persistent_map.o [6]
nand::PersistentMap::fillUnknownSectionOffsets(nand::ZoneMapSectionPage &, bool &)
                        0x0001d661   0xc6  Code  Gb  persistent_map.o [6]
nand::PersistentMap::findTopPageIndex(nand::ZoneMapSectionPage &, bool &)
                        0x0001d5ad   0xb4  Code  Gb  persistent_map.o [6]
nand::PersistentMap::getMapBlock()
                        0x0001dfc9    0xe  Code  Gb  ddi_nand_mapper_utilities.o [6]
nand::PersistentMap::getSectionForConsolidate(unsigned int, unsigned int, unsigned char *&, unsigned int &, unsigned char *)
                        0x0001d9a9   0x60  Code  Gb  persistent_map.o [6]
nand::PersistentMap::init(int, int)
                        0x0001d255   0x3c  Code  Gb  persistent_map.o [6]
nand::PersistentMap::isMapBlock(nand::BlockAddress const &)
                        0x0001bbb9   0x24  Code  Gb  mapper.o [6]
nand::PersistentMap::retrieveSection(unsigned int, unsigned char *, bool)
                        0x0001d291  0x1f0  Code  Gb  persistent_map.o [6]
nand::PersistentMap::~PersistentMap()
                        0x0001d23f   0x16  Code  Gb  persistent_map.o [6]
nand::PersistentMap::~PersistentMap() [subobject]
                        0x0001d1f9    0xc  Code  Gb  persistent_map.o [6]
nand::PersistentPhyMap::PersistentPhyMap(nand::Mapper &)
                        0x0001b10f   0x2c  Code  Gb  persistent_phy_map.o [6]
nand::PersistentPhyMap::getSectionForConsolidate(unsigned int, unsigned int, unsigned char *&, unsigned int &, unsigned char *)
                        0x0001b327   0x70  Code  Gb  persistent_phy_map.o [6]
nand::PersistentPhyMap::getTrustNumber()
                        0x0001b939    0x4  Code  Gb  mapper.o [6]
nand::PersistentPhyMap::init()
                        0x0001b149   0x20  Code  Gb  persistent_phy_map.o [6]
nand::PersistentPhyMap::load()
                        0x0001b169  0x118  Code  Gb  persistent_phy_map.o [6]
nand::PersistentPhyMap::save()
                        0x0001b281   0x68  Code  Gb  persistent_phy_map.o [6]
nand::PersistentPhyMap::saveNewCopy()
                        0x0001b2e9   0x3a  Code  Gb  persistent_phy_map.o [6]
nand::PersistentPhyMap::setPhyMap(nand::PhyMap *)
                        0x0001b323    0x4  Code  Gb  persistent_phy_map.o [6]
nand::PersistentPhyMap::setTrustFlag(bool)
                        0x0001c16f    0x4  Code  Gb  mapper.o [6]
nand::PersistentPhyMap::setTrustNumber(unsigned short)
                        0x0001c173    0x4  Code  Gb  mapper.o [6]
nand::PersistentPhyMap::~PersistentPhyMap()
                        0x0001b13b    0xe  Code  Gb  persistent_phy_map.o [6]
nand::PersistentPhyMap::~PersistentPhyMap() [deleting]
                        0x0001b0f9   0x16  Code  Gb  persistent_phy_map.o [6]
nand::PhyMap::clearDirty()
                        0x0001aa4f   0x20  Code  Gb  phy_map.o [6]
nand::PhyMap::getAllEntries()
                        0x0001dfb9    0x4  Code  Gb  ddi_nand_mapper_utilities.o [6]
nand::PhyMap::getEntryCount() const
                        0x0001c191    0x4  Code  Gb  ddi_nand_mapper_utilities.o [6]
nand::PhyMap::getEntryCountForBlockCount(unsigned int)
                        0x0001bbb3    0x6  Code  Gb  persistent_phy_map.o [6]
nand::PhyMap::getFreeCount() const
                        0x0001aa09   0x26  Code  Gb  phy_map.o [6]
nand::PhyMap::init(unsigned int)
                        0x0001a881   0x48  Code  Gb  phy_map.o [6]
nand::PhyMap::isBlockFree(unsigned int) const
                        0x0001a9e1   0x28  Code  Gb  phy_map.o [6]
nand::PhyMap::isBlockUsed(unsigned int) const
                        0x0001c1bb   0x16  Code  Gb  mapper.o [6]
nand::PhyMap::isDirty() const
                        0x0001c167    0x4  Code  Gb  mapper.o [6]
nand::PhyMap::markAll(bool)
                        0x0001a8e1   0x24  Code  Gb  phy_map.o [6]
nand::PhyMap::markBlock(unsigned int, bool, bool)
                        0x0001a905   0xc2  Code  Gb  phy_map.o [6]
nand::PhyMap::markBlockFree(unsigned int)
                        0x0001c1a7   0x14  Code  Gb  mapper.o [6]
nand::PhyMap::markBlockFreeAndErase(unsigned int)
                        0x0001bbdd   0x14  Code  Gb  persistent_map.o [6]
nand::PhyMap::markBlockUsed(unsigned int)
                        0x0001bfdd   0x14  Code  Gb  mapper.o [6]
nand::PhyMap::operator [](unsigned int)
                        0x0001dfbd    0x8  Code  Gb  ddi_nand_mapper_utilities.o [6]
nand::PhyMap::setDirty()
                        0x0001aa2f   0x20  Code  Gb  phy_map.o [6]
nand::PhyMap::setDirtyCallback(void (*)(nand::PhyMap*, bool, bool, void *), void *)
                        0x0001aa6f    0x6  Code  Gb  mapper.o [6]
nand::PhyMap::~PhyMap()
                        0x0001a8c9   0x18  Code  Gb  phy_map.o [6]
nand::Region::Iterator::Iterator(nand::Region**, unsigned int)
                        0x0001dff3    0xa  Code  Gb  ddi_nand_data_drive_erase.o [6]
nand::Region::Iterator::getNext()
                        0x0001b95f   0x20  Code  Gb  ddi_nand_data_drive_erase.o [6]
nand::Region::Region()  0x000155ab   0x3c  Code  Gb  ddi_nand_media_init.o [6]
nand::Region::Region() [subobject]
                        0x000153e1    0xc  Code  Gb  ddi_nand_media_init.o [6]
nand::Region::create(nand::_NandConfigBlockRegionInfo *)
                        0x00022251   0x80  Code  Gb  ddi_nand_media_discover.o [6]
nand::Region::initFromConfigBlock(nand::_NandConfigBlockRegionInfo *)
                        0x000222d1   0x4c  Code  Gb  ddi_nand_media_discover.o [6]
nand::Region::isDataRegion() const
                        0x00024f53   0x1c  Code  Gb  ddi_nand_media_discover.o [6]
nand::Region::setDirty()
                        0x0001cc23    0x8  Code  Gb  ddi_nand_media_regions.o [6]
nand::Region::~Region()
                        0x00024efd    0x2  Code  Gb  ddi_nand_media_discover.o [6]
nand::Region::~Region() [subobject]
                        0x00024ef1    0xc  Code  Gb  ddi_nand_media_discover.o [6]
nand::RelocateVirtualBlockTask::RelocateVirtualBlockTask(nand::NssmManager *, unsigned int)
                        0x00019f7d   0x1c  Code  Gb  nonsequential_sectors_map.o [6]
nand::RelocateVirtualBlockTask::examineOne(nand::DeferredTask *)
                        0x00019f9f   0x42  Code  Gb  nonsequential_sectors_map.o [6]
nand::RelocateVirtualBlockTask::getTaskTypeID() const
                        0x00019f99    0x6  Code  Gb  nonsequential_sectors_map.o [6]
nand::RelocateVirtualBlockTask::getVirtualBlock() const
                        0x0001d0e7    0x4  Code  Gb  nonsequential_sectors_map.o [6]
nand::RelocateVirtualBlockTask::task()
                        0x00019fe1   0x2a  Code  Gb  nonsequential_sectors_map.o [6]
nand::RelocateVirtualBlockTask::~RelocateVirtualBlockTask()
                        0x00024f23    0xe  Code  Gb  nonsequential_sectors_map.o [6]
nand::RelocateVirtualBlockTask::~RelocateVirtualBlockTask() [deleting]
                        0x00024f3d   0x16  Code  Gb  nonsequential_sectors_map.o [6]
nand::SystemRegion::SystemRegion()
                        0x000155e7   0x12  Code  Gb  ddi_nand_media_init.o [6]
nand::SystemRegion::SystemRegion() [subobject]
                        0x000153ed    0xc  Code  Gb  ddi_nand_media_init.o [6]
nand::SystemRegion::addNewBadBlock(nand::BlockAddress const &)
                        0x00002943    0x2  Code  Gb  ddi_nand_media_discover.o [6]
nand::SystemRegion::getBadBlockCount() const
                        0x00001057    0x6  Code  Gb  ddi_nand_media_discover.o [6]
nand::SystemRegion::getRegionType() const
                        0x000004db    0x6  Code  Gb  ddi_nand_media_init.o [6]
nand::SystemRegion::~SystemRegion()
                        0x00024ee3    0xe  Code  Gb  ddi_nand_media_discover.o [6]
nand::SystemRegion::~SystemRegion() [deleting]
                        0x00024ecd   0x16  Code  Gb  ddi_nand_media_init.o [6]
nand::SystemRegion::~SystemRegion() [subobject]
                        0x00024f7d    0xc  Code  Gb  ddi_nand_media_discover.o [6]
nand::ZoneMapCache::ZoneMapCache(nand::Mapper &)
                        0x0001aa8b   0x34  Code  Gb  zone_map_cache.o [6]
nand::ZoneMapCache::consolidate(bool, unsigned int, unsigned char *, unsigned int)
                        0x0001ae87   0x5a  Code  Gb  zone_map_cache.o [6]
nand::ZoneMapCache::evictAndLoad(unsigned int, int)
                        0x0001df21   0x8a  Code  Gb  ddi_nand_mapper_zone_map_cache_lookup.o [6]
nand::ZoneMapCache::findZoneMap()
                        0x0001ad53   0x38  Code  Gb  zone_map_cache.o [6]
nand::ZoneMapCache::flush()
                        0x0001afdd   0x52  Code  Gb  zone_map_cache.o [6]
nand::ZoneMapCache::getBlockInfo(unsigned int, unsigned int *)
                        0x0001bff1   0x86  Code  Gb  ddi_nand_mapper_get_info.o [6]
nand::ZoneMapCache::getSectionForConsolidate(unsigned int, unsigned int, unsigned char *&, unsigned int &, unsigned char *)
                        0x0001aee1   0x8a  Code  Gb  zone_map_cache.o [6]
nand::ZoneMapCache::getTrustFlag()
                        0x0001c16b    0x4  Code  Gb  mapper.o [6]
nand::ZoneMapCache::getTrustNumber()
                        0x0001b935    0x4  Code  Gb  mapper.o [6]
nand::ZoneMapCache::init()
                        0x0001aad9   0xe4  Code  Gb  zone_map_cache.o [6]
nand::ZoneMapCache::loadCacheEntry(unsigned int, int)
                        0x0001ad8b   0xfc  Code  Gb  zone_map_cache.o [6]
nand::ZoneMapCache::lookupCacheEntry(unsigned int, int *)
                        0x0001de11  0x102  Code  Gb  ddi_nand_mapper_zone_map_cache_lookup.o [6]
nand::ZoneMapCache::readMapEntry(nand::ZoneMapCache::CacheEntry *, unsigned int)
                        0x0001c0a9   0x3c  Code  Gb  ddi_nand_mapper_get_info.o [6]
nand::ZoneMapCache::setBlockInfo(unsigned int, unsigned int)
                        0x0001b02f   0x9c  Code  Gb  zone_map_cache.o [6]
nand::ZoneMapCache::shutdown()
                        0x0001abbd   0x32  Code  Gb  zone_map_cache.o [6]
nand::ZoneMapCache::writeEmptyMap()
                        0x0001abef  0x164  Code  Gb  zone_map_cache.o [6]
nand::ZoneMapCache::writeMapEntry(nand::ZoneMapCache::CacheEntry *, unsigned int, unsigned int)
                        0x0001af6b   0x72  Code  Gb  zone_map_cache.o [6]
nand::ZoneMapCache::~ZoneMapCache()
                        0x0001aabf   0x1a  Code  Gb  zone_map_cache.o [6]
nand::ZoneMapCache::~ZoneMapCache() [deleting]
                        0x0001aa75   0x16  Code  Gb  zone_map_cache.o [6]
nand::ZoneMapSectionPage::ZoneMapSectionPage()
                        0x0001dba9   0x22  Code  Gb  zone_map_section_page.o [6]
nand::ZoneMapSectionPage::ZoneMapSectionPage(nand::PageAddress const &)
                        0x0001dbcb   0x26  Code  Gb  zone_map_section_page.o [6]
nand::ZoneMapSectionPage::buffersDidChange()
                        0x0001dc03   0x22  Code  Gb  zone_map_section_page.o [6]
nand::ZoneMapSectionPage::getMaxEntriesPerPage()
                        0x0001e245   0x14  Code  Gb  zone_map_section_page.o [6]
nand::ZoneMapSectionPage::getSectionNumber()
                        0x0001dc25   0x28  Code  Gb  zone_map_section_page.o [6]
nand::ZoneMapSectionPage::operator =(nand::PageAddress const &)
                        0x0001dbf1   0x12  Code  Gb  zone_map_section_page.o [6]
nand::ZoneMapSectionPage::setEntrySize(unsigned int)
                        0x0001ddd5    0x4  Code  Gb  persistent_map.o [6]
nand::ZoneMapSectionPage::setMapType(unsigned int)
                        0x0001dddd    0x4  Code  Gb  persistent_map.o [6]
nand::ZoneMapSectionPage::setMetadataSignature(unsigned int)
                        0x0001ddd9    0x4  Code  Gb  persistent_map.o [6]
nand::ZoneMapSectionPage::validateHeader()
                        0x0001dc4d   0x40  Code  Gb  zone_map_section_page.o [6]
nand::ZoneMapSectionPage::writeSection(unsigned int, unsigned int, unsigned char *, unsigned int *, bool, unsigned short)
                        0x0001dc8d  0x11c  Code  Gb  zone_map_section_page.o [6]
nand::ZoneMapSectionPage::~ZoneMapSectionPage()
                        0x0001dde1    0xe  Code  Gb  zone_map_section_page.o [6]
nand::is_read_status_error_excluding_ecc(unsigned long)
                        0x00024529   0x26  Code  Gb  ddi_nand_data_drive_read_sector.o [6]
nand::is_read_status_success_or_ecc_fixed(unsigned long)
                        0x0001bbf1   0x1e  Code  Gb  persistent_map.o [6]
nand::is_read_status_success_or_ecc_fixed_without_decay(unsigned long)
                        0x0001e225   0x16  Code  Gb  persistent_map.o [6]
nandflash_erase()       0x0000a22d   0x58  Code  Gb  demo.o [1]
nandflash_erase_chip()  0x0000a285   0x80  Code  Gb  demo.o [1]
nandflash_handle        0x1fff0714    0x4  Data  Gb  demo.o [1]
nandflash_repair()      0x0000a305   0x54  Code  Gb  demo.o [1]
nandwl_ignore_init      0x1fff0724    0x4  Data  Lc  nandflash_wl.o [6]
nfc_check_block         0x00021a19  0x11c  Code  Gb  nfc.o [3]
nfc_deinit              0x000214ff    0x2  Code  Gb  nfc.o [3]
nfc_dump_buff(void *, unsigned long, char *)
                        0x000206c1   0xf8  Code  Gb  nfc_wl.o [6]
nfc_erase_block         0x0002152d   0xe2  Code  Gb  nfc.o [3]
nfc_erase_flash         0x00021501   0x2c  Code  Gb  nfc.o [3]
nfc_init                0x00021299  0x266  Code  Gb  nfc.o [3]
nfc_io_init             0x00021291    0x8  Code  Gb  nfc_k60f120m.o [3]
nfc_ioctl               0x00021d21   0x32  Code  Gb  nfc.o [3]
nfc_mark_block_as_bad   0x00021b35  0x128  Code  Gb  nfc.o [3]
nfc_read_ID             0x00021c5d   0x8a  Code  Gb  nfc.o [3]
nfc_read_page           0x0002160f  0x200  Code  Gb  nfc.o [3]
nfc_read_page_metadata  0x00020b03  0x226  Code  Gb  nfc_wl.o [6]
nfc_read_page_with_metadata
                        0x000207c9  0x33a  Code  Gb  nfc_wl.o [6]
nfc_read_phy_page_raw   0x00020f7b  0x142  Code  Gb  nfc_wl.o [6]
nfc_swap_addr1          0x1fff079c    0x4  Data  Gb  nfc.o [3]
nfc_swap_addr1_with_metadata
                        0x1fff0760    0x4  Data  Gb  nfc_wl.o [6]
nfc_swap_addr2          0x1fff07a0    0x4  Data  Gb  nfc.o [3]
nfc_write_page          0x0002180f  0x20a  Code  Gb  nfc.o [3]
nfc_write_page_with_metadata
                        0x00020d29  0x252  Code  Gb  nfc_wl.o [6]
nfc_write_phy_page_raw  0x000210bd  0x166  Code  Gb  nfc_wl.o [6]
operator delete (void *)
                        0x00017537    0xa  Code  Gb  delop_0.o [5]
operator delete[] (void *)
                        0x0001d1e9    0x4  Code  Gb  delaop_0.o [5]
operator new (unsigned int)
                        0x000153bd   0x24  Code  Gb  newop_0.o [5]
operator new[] (unsigned int)
                        0x000176d7    0x8  Code  Gb  newaop_0.o [5]
os_err_code_to_wl       0x00015ac1   0x6c  Code  Gb  errcode.o [6]
pdb_external            0x1fff02b0    0x4  Data  Lc  adt_kpdb.o [3]
pdb_internal            0x1fff0a20   0x34  Data  Lc  adt_kpdb.o [3]
print_bpb               0x0001ec35  0x1c4  Code  Lc  sh_di.o [12]
print_fsi               0x0001edf9   0x78  Code  Lc  sh_di.o [12]
shell_fs_close(long, char **)
                        0x0000a583   0x5c  Code  Gb  demo.o [1]
shell_fs_open(long, char **)
                        0x0000a527   0x5c  Code  Gb  demo.o [1]
shell_nand_erase(long, char **)
                        0x0000a5df   0x5c  Code  Gb  demo.o [1]
shell_nand_erase_chip(long, char **)
                        0x0000a63b   0x5c  Code  Gb  demo.o [1]
shell_nand_repair(long, char **)
                        0x0000a697   0x5c  Code  Gb  demo.o [1]
shell_task(unsigned long)
                        0x0000a4e5   0x42  Code  Gb  demo.o [1]
std::_NomemoryNothrow()
                        0x00017533    0x4  Code  Gb  nomemory.o [5]
std::__iar_New_hand     0x1fff0a54    0x4  Data  Gb  new.o [5]
strcat                  0x00017517   0x1c  Code  Gb  strcat.o [4]
strcmp                  0x00009ac9         Code  Gb  strcmp.o [10]
strcpy                  0x00013a41         Code  Gb  strcpy.o [10]
strlen                  0x00009b0d         Code  Gb  strlen.o [10]
strncmp                 0x0000a1fd   0x2a  Code  Gb  strncmp.o [4]
strncpy                 0x00013939         Code  Gb  strncpy.o [10]
sw_time                 0x1fff0824    0x4  Data  Lc  krtc.o [3]
systick_devif           0x000286c8   0x18  Data  Gb  hwtimer_systick.o [3]
systick_get_vector      0x00021ef9    0x4  Code  Gb  hwtimer_kinetis.o [3]
systimer                0x1fff02b8   0x40  Data  Gb  init_bsp.o [3]
tolower                 0x000143db    0xc  Code  Gb  io_util.o [9]
upper_hex_string        0x00027d84   0x14  Data  Lc  io_dopr.o [9]
user_enables            0x1fff0828    0x4  Data  Lc  krtc.o [3]
user_isr                0x1fff0830    0x4  Data  Gb  krtc.o [3]
user_requests           0x1fff082c    0x4  Data  Lc  krtc.o [3]
wl_hw_get_microsecond   0x0001ddf7   0x18  Code  Gb  simple_timer.o [6]


[1] = D:\Ganglu\Documents\GitHub\K60F120M\ffs\examples\mfs_nandflash\iar\mfs_nandflash_K60F120M\K60F120M\Int Flash Debug\Obj
[2] = command line
[3] = bsp.a
[4] = dl7M_tln.a
[5] = dlpp7M_tl_nc.a
[6] = ffs.a
[7] = m7M_tlv.a
[8] = mfs.a
[9] = psp.a
[10] = rt7M_tl.a
[11] = shb_l.a
[12] = shell.a

  151 488 bytes of readonly  code memory
   21 621 bytes of readonly  data memory
    2 654 bytes of readwrite data memory

Errors: none
Warnings: none
